libp8-platform.so.2 libp8-platform2 #MINVER#
 _Z12IsUTF8LetterPKh@Base 1.0.10
 _Z12compareWcharPKvS0_@Base 1.0.10
 _Z14tolowerUnicodeRKw@Base 1.0.10
 _Z14toupperUnicodeRKw@Base 1.0.10
 _ZN11StringUtils10CreateUUIDB5cxx11Ev@Base 1.0.10
 _ZN11StringUtils10FindNumberERKNSt7__cxx1112basic_stringIcSt11char_traitsIcESaIcEEES7_@Base 1.0.10
 _ZN11StringUtils10RemoveCRLFERNSt7__cxx1112basic_stringIcSt11char_traitsIcESaIcEEE@Base 1.0.10
 _ZN11StringUtils10StartsWithEPKcS1_@Base 1.0.10
 _ZN11StringUtils10StartsWithERKNSt7__cxx1112basic_stringIcSt11char_traitsIcESaIcEEEPKc@Base 1.0.10
 _ZN11StringUtils10StartsWithERKNSt7__cxx1112basic_stringIcSt11char_traitsIcESaIcEEES7_@Base 1.0.10
 _ZN11StringUtils10m_lastUUIDB5cxx11E@Base 1.0.10
 _ZN11StringUtils11utf8_strlenEPKc@Base 1.0.10
 _ZN11StringUtils12EqualsNoCaseEPKcS1_@Base 1.0.10
 _ZN11StringUtils12EqualsNoCaseERKNSt7__cxx1112basic_stringIcSt11char_traitsIcESaIcEEEPKc@Base 1.0.10
 _ZN11StringUtils12EqualsNoCaseERKNSt7__cxx1112basic_stringIcSt11char_traitsIcESaIcEEES7_@Base 1.0.10
 _ZN11StringUtils12SizeToStringB5cxx11Ex@Base 1.0.10
 _ZN11StringUtils12WordToDigitsERNSt7__cxx1112basic_stringIcSt11char_traitsIcESaIcEEE@Base 1.0.10
 _ZN11StringUtils13CompareNoCaseEPKcS1_@Base 1.0.10
 _ZN11StringUtils13CompareNoCaseERKNSt7__cxx1112basic_stringIcSt11char_traitsIcESaIcEEES7_@Base 1.0.10
 _ZN11StringUtils14EndsWithNoCaseERKNSt7__cxx1112basic_stringIcSt11char_traitsIcESaIcEEEPKc@Base 1.0.10
 _ZN11StringUtils14EndsWithNoCaseERKNSt7__cxx1112basic_stringIcSt11char_traitsIcESaIcEEES7_@Base 1.0.10
 _ZN11StringUtils14FindEndBracketERKNSt7__cxx1112basic_stringIcSt11char_traitsIcESaIcEEEcci@Base 1.0.10
 _ZN11StringUtils15ContainsKeywordERKNSt7__cxx1112basic_stringIcSt11char_traitsIcESaIcEEERKSt6vectorIS5_SaIS5_EE@Base 1.0.10
 _ZN11StringUtils15IsNaturalNumberERKNSt7__cxx1112basic_stringIcSt11char_traitsIcESaIcEEE@Base 1.0.10
 _ZN11StringUtils15asciidigitvalueEc@Base 1.0.10
 _ZN11StringUtils16StartsWithNoCaseEPKcS1_@Base 1.0.10
 _ZN11StringUtils16StartsWithNoCaseERKNSt7__cxx1112basic_stringIcSt11char_traitsIcESaIcEEEPKc@Base 1.0.10
 _ZN11StringUtils16StartsWithNoCaseERKNSt7__cxx1112basic_stringIcSt11char_traitsIcESaIcEEES7_@Base 1.0.10
 _ZN11StringUtils16asciixdigitvalueEc@Base 1.0.10
 _ZN11StringUtils19AlphaNumericCompareEPKwS1_@Base 1.0.10
 _ZN11StringUtils19SecondsToTimeStringB5cxx11El11TIME_FORMAT@Base 1.0.10
 _ZN11StringUtils19TimeStringToSecondsERKNSt7__cxx1112basic_stringIcSt11char_traitsIcESaIcEEE@Base 1.0.10
 _ZN11StringUtils20DateStringToYYYYMMDDERKNSt7__cxx1112basic_stringIcSt11char_traitsIcESaIcEEE@Base 1.0.10
 _ZN11StringUtils29RemoveDuplicatedSpacesAndTabsERNSt7__cxx1112basic_stringIcSt11char_traitsIcESaIcEEE@Base 1.0.10
 _ZN11StringUtils3MidERKNSt7__cxx1112basic_stringIcSt11char_traitsIcESaIcEEEjj@Base 1.0.10
 _ZN11StringUtils4JoinERKSt6vectorINSt7__cxx1112basic_stringIcSt11char_traitsIcESaIcEEESaIS6_EERKS6_@Base 1.0.10
 _ZN11StringUtils4LeftERKNSt7__cxx1112basic_stringIcSt11char_traitsIcESaIcEEEj@Base 1.0.10
 _ZN11StringUtils4TrimERNSt7__cxx1112basic_stringIcSt11char_traitsIcESaIcEEE@Base 1.0.10
 _ZN11StringUtils4TrimERNSt7__cxx1112basic_stringIcSt11char_traitsIcESaIcEEEPKc@Base 1.0.10
 _ZN11StringUtils5EmptyB5cxx11E@Base 1.0.10
 _ZN11StringUtils5RightERKNSt7__cxx1112basic_stringIcSt11char_traitsIcESaIcEEEj@Base 1.0.10
 _ZN11StringUtils5SplitERKNSt7__cxx1112basic_stringIcSt11char_traitsIcESaIcEEES7_j@Base 1.0.10
 _ZN11StringUtils6FormatB5cxx11EPKcz@Base 1.0.10
 _ZN11StringUtils6FormatB5cxx11EPKwz@Base 1.0.10
 _ZN11StringUtils7FormatVB5cxx11EPKcSt9__va_list@Base 1.0.10
 _ZN11StringUtils7FormatVB5cxx11EPKwSt9__va_list@Base 1.0.10
 _ZN11StringUtils7ReplaceERNSt7__cxx1112basic_stringIcSt11char_traitsIcESaIcEEERKS5_S8_@Base 1.0.10
 _ZN11StringUtils7ReplaceERNSt7__cxx1112basic_stringIcSt11char_traitsIcESaIcEEEcc@Base 1.0.10
 _ZN11StringUtils7ReplaceERNSt7__cxx1112basic_stringIwSt11char_traitsIwESaIwEEERKS5_S8_@Base 1.0.10
 _ZN11StringUtils7ToLowerERNSt7__cxx1112basic_stringIcSt11char_traitsIcESaIcEEE@Base 1.0.10
 _ZN11StringUtils7ToLowerERNSt7__cxx1112basic_stringIwSt11char_traitsIwESaIwEEE@Base 1.0.10
 _ZN11StringUtils7ToUpperERNSt7__cxx1112basic_stringIcSt11char_traitsIcESaIcEEE@Base 1.0.10
 _ZN11StringUtils7ToUpperERNSt7__cxx1112basic_stringIwSt11char_traitsIwESaIwEEE@Base 1.0.10
 _ZN11StringUtils8EndsWithERKNSt7__cxx1112basic_stringIcSt11char_traitsIcESaIcEEEPKc@Base 1.0.10
 _ZN11StringUtils8EndsWithERKNSt7__cxx1112basic_stringIcSt11char_traitsIcESaIcEEES7_@Base 1.0.10
 _ZN11StringUtils8ParamifyERKNSt7__cxx1112basic_stringIcSt11char_traitsIcESaIcEEE@Base 1.0.10
 _ZN11StringUtils8TokenizeERKNSt7__cxx1112basic_stringIcSt11char_traitsIcESaIcEEERSt6vectorIS5_SaIS5_EES7_@Base 1.0.10
 _ZN11StringUtils8TokenizeERKNSt7__cxx1112basic_stringIcSt11char_traitsIcESaIcEEES7_@Base 1.0.10
 _ZN11StringUtils8TrimLeftERNSt7__cxx1112basic_stringIcSt11char_traitsIcESaIcEEE@Base 1.0.10
 _ZN11StringUtils8TrimLeftERNSt7__cxx1112basic_stringIcSt11char_traitsIcESaIcEEEPKc@Base 1.0.10
 _ZN11StringUtils9FindWordsEPKcS1_@Base 1.0.10
 _ZN11StringUtils9IsIntegerERKNSt7__cxx1112basic_stringIcSt11char_traitsIcESaIcEEE@Base 1.0.10
 _ZN11StringUtils9TrimRightERNSt7__cxx1112basic_stringIcSt11char_traitsIcESaIcEEE@Base 1.0.10
 _ZN11StringUtils9TrimRightERNSt7__cxx1112basic_stringIcSt11char_traitsIcESaIcEEEPKc@Base 1.0.10
 _ZNSt6vectorINSt7__cxx1112basic_stringIcSt11char_traitsIcESaIcEEESaIS5_EE17_M_realloc_insertIJRKS5_EEEvN9__gnu_cxx17__normal_iteratorIPS5_S7_EEDpOT_@Base 2.1.0.1
 _ZNSt6vectorINSt7__cxx1112basic_stringIcSt11char_traitsIcESaIcEEESaIS5_EE17_M_realloc_insertIJS5_EEEvN9__gnu_cxx17__normal_iteratorIPS5_S7_EEDpOT_@Base 2.1.0.1
 _ZNSt6vectorINSt7__cxx1112basic_stringIcSt11char_traitsIcESaIcEEESaIS5_EED1Ev@Base 1.0.10
 _ZNSt6vectorINSt7__cxx1112basic_stringIcSt11char_traitsIcESaIcEEESaIS5_EED2Ev@Base 1.0.10
 _ZNSt6vectorIjSaIjEE17_M_realloc_insertIJRKjEEEvN9__gnu_cxx17__normal_iteratorIPjS1_EEDpOT_@Base 2.1.0.1
 _ZNSt7__cxx1112basic_stringIwSt11char_traitsIwESaIwEE12_M_constructIPKwEEvT_S8_St20forward_iterator_tag@Base 2.1.0.1+dfsg1-2
 _ZSt9__find_ifIN9__gnu_cxx17__normal_iteratorIPcNSt7__cxx1112basic_stringIcSt11char_traitsIcESaIcEEEEENS0_5__ops10_Iter_predISt12unary_negateISt25pointer_to_unary_functionIciEEEEET_SH_SH_T0_St26random_access_iterator_tag@Base 2.1.0.1+dfsg1-2
