libQt5MultimediaGstTools.so.5 libqt5multimediagsttools5 #MINVER#
 Qt_5_PRIVATE_API@Qt_5_PRIVATE_API 5.10.1
 _Z18qt_gst_video_sinksv@Qt_5_PRIVATE_API 5.10.1
 _Z19qt_gst_pad_get_capsP7_GstPad@Qt_5_PRIVATE_API 5.10.1
 _Z21qt_gst_caps_normalizeP8_GstCaps@Qt_5_PRIVATE_API 5.10.1
 _Z22qt_gst_object_ref_sinkPv@Qt_5_PRIVATE_API 5.10.1
 _Z25qt_gst_caps_can_intersectPK8_GstCapsS1_@Qt_5_PRIVATE_API 5.10.1
 _Z26qt_gst_structure_new_emptyPKc@Qt_5_PRIVATE_API 5.10.1
 _Z27qt_gst_pad_get_current_capsP7_GstPad@Qt_5_PRIVATE_API 5.10.1
 _Z29qt_gst_element_query_durationP11_GstElement9GstFormatPx@Qt_5_PRIVATE_API 5.10.1
 _Z29qt_gst_element_query_positionP11_GstElement9GstFormatPx@Qt_5_PRIVATE_API 5.10.1
 _Z30qt_gst_util_double_to_fractiondPiS_@Qt_5_PRIVATE_API 5.10.1
 _Z31qt_gst_element_get_factory_nameP11_GstElement@Qt_5_PRIVATE_API 5.10.1
 _ZN10QGstAppSrc11onDataReadyEv@Qt_5_PRIVATE_API 5.10.1
 _ZN10QGstAppSrc11qt_metacallEN11QMetaObject4CallEiPPv@Qt_5_PRIVATE_API 5.10.1
 _ZN10QGstAppSrc11qt_metacastEPKc@Qt_5_PRIVATE_API 5.10.1
 _ZN10QGstAppSrc12on_need_dataEP10_GstAppSrcjPv@Qt_5_PRIVATE_API 5.10.1
 _ZN10QGstAppSrc12on_seek_dataEP10_GstAppSrcyPv@Qt_5_PRIVATE_API 5.10.1
 _ZN10QGstAppSrc14destroy_notifyEPv@Qt_5_PRIVATE_API 5.10.1
 _ZN10QGstAppSrc14on_enough_dataEP10_GstAppSrcPv@Qt_5_PRIVATE_API 5.10.1
 _ZN10QGstAppSrc15streamDestroyedEv@Qt_5_PRIVATE_API 5.10.1
 _ZN10QGstAppSrc16pushDataToAppSrcEv@Qt_5_PRIVATE_API 5.10.1
 _ZN10QGstAppSrc16staticMetaObjectE@Qt_5_PRIVATE_API 5.10.1
 _ZN10QGstAppSrc5setupEP11_GstElement@Qt_5_PRIVATE_API 5.10.1
 _ZN10QGstAppSrc6doSeekEx@Qt_5_PRIVATE_API 5.10.1
 _ZN10QGstAppSrc7elementEv@Qt_5_PRIVATE_API 5.10.1
 _ZN10QGstAppSrc7sendEOSEv@Qt_5_PRIVATE_API 5.10.1
 _ZN10QGstAppSrc9setStreamEP9QIODevice@Qt_5_PRIVATE_API 5.10.1
 _ZN10QGstAppSrcC1EP7QObject@Qt_5_PRIVATE_API 5.10.1
 _ZN10QGstAppSrcC2EP7QObject@Qt_5_PRIVATE_API 5.10.1
 _ZN10QGstAppSrcD0Ev@Qt_5_PRIVATE_API 5.10.1
 _ZN10QGstAppSrcD1Ev@Qt_5_PRIVATE_API 5.10.1
 _ZN10QGstAppSrcD2Ev@Qt_5_PRIVATE_API 5.10.1
 _ZN14QGstCodecsInfo12updateCodecsENS_11ElementTypeE@Qt_5_PRIVATE_API 5.10.1
 _ZN14QGstCodecsInfoC1ENS_11ElementTypeE@Qt_5_PRIVATE_API 5.10.1
 _ZN14QGstCodecsInfoC2ENS_11ElementTypeE@Qt_5_PRIVATE_API 5.10.1
 _ZN15QGstVideoBuffer3mapEN20QAbstractVideoBuffer7MapModeEPiS2_PPh@Qt_5_PRIVATE_API 5.10.1
 _ZN15QGstVideoBuffer5unmapEv@Qt_5_PRIVATE_API 5.10.1
 _ZN15QGstVideoBufferC1EP10_GstBufferRK13_GstVideoInfo@Qt_5_PRIVATE_API 5.10.1
 _ZN15QGstVideoBufferC1EP10_GstBufferRK13_GstVideoInfoN20QAbstractVideoBuffer10HandleTypeERK8QVariant@Qt_5_PRIVATE_API 5.10.1
 _ZN15QGstVideoBufferC2EP10_GstBufferRK13_GstVideoInfo@Qt_5_PRIVATE_API 5.10.1
 _ZN15QGstVideoBufferC2EP10_GstBufferRK13_GstVideoInfoN20QAbstractVideoBuffer10HandleTypeERK8QVariant@Qt_5_PRIVATE_API 5.10.1
 _ZN15QGstVideoBufferD0Ev@Qt_5_PRIVATE_API 5.10.1
 _ZN15QGstVideoBufferD1Ev@Qt_5_PRIVATE_API 5.10.1
 _ZN15QGstVideoBufferD2Ev@Qt_5_PRIVATE_API 5.10.1
 _ZN17QGstreamerMessageC1EP11_GstMessage@Qt_5_PRIVATE_API 5.10.1
 _ZN17QGstreamerMessageC1ERKS_@Qt_5_PRIVATE_API 5.10.1
 _ZN17QGstreamerMessageC1Ev@Qt_5_PRIVATE_API 5.10.1
 _ZN17QGstreamerMessageC2EP11_GstMessage@Qt_5_PRIVATE_API 5.10.1
 _ZN17QGstreamerMessageC2ERKS_@Qt_5_PRIVATE_API 5.10.1
 _ZN17QGstreamerMessageC2Ev@Qt_5_PRIVATE_API 5.10.1
 _ZN17QGstreamerMessageD1Ev@Qt_5_PRIVATE_API 5.10.1
 _ZN17QGstreamerMessageD2Ev@Qt_5_PRIVATE_API 5.10.1
 _ZN17QGstreamerMessageaSERKS_@Qt_5_PRIVATE_API 5.10.1
 _ZN19QGstreamerBusHelper11qt_metacallEN11QMetaObject4CallEiPPv@Qt_5_PRIVATE_API 5.10.1
 _ZN19QGstreamerBusHelper11qt_metacastEPKc@Qt_5_PRIVATE_API 5.10.1
 _ZN19QGstreamerBusHelper16staticMetaObjectE@Qt_5_PRIVATE_API 5.10.1
 _ZN19QGstreamerBusHelper19removeMessageFilterEP7QObject@Qt_5_PRIVATE_API 5.10.1
 _ZN19QGstreamerBusHelper20installMessageFilterEP7QObject@Qt_5_PRIVATE_API 5.10.1
 _ZN19QGstreamerBusHelper7messageERK17QGstreamerMessage@Qt_5_PRIVATE_API 5.10.1
 _ZN19QGstreamerBusHelperC1EP7_GstBusP7QObject@Qt_5_PRIVATE_API 5.10.1
 _ZN19QGstreamerBusHelperC2EP7_GstBusP7QObject@Qt_5_PRIVATE_API 5.10.1
 _ZN19QGstreamerBusHelperD0Ev@Qt_5_PRIVATE_API 5.10.1
 _ZN19QGstreamerBusHelperD1Ev@Qt_5_PRIVATE_API 5.10.1
 _ZN19QGstreamerBusHelperD2Ev@Qt_5_PRIVATE_API 5.10.1
 _ZN21QGstreamerBufferProbe11bufferProbeEP7_GstPadP16_GstPadProbeInfoPv@Qt_5_PRIVATE_API 5.10.1
 _ZN21QGstreamerBufferProbe11probeBufferEP10_GstBuffer@Qt_5_PRIVATE_API 5.10.1
 _ZN21QGstreamerBufferProbe13addProbeToPadEP7_GstPadb@Qt_5_PRIVATE_API 5.10.1
 _ZN21QGstreamerBufferProbe18removeProbeFromPadEP7_GstPad@Qt_5_PRIVATE_API 5.10.1
 _ZN21QGstreamerBufferProbe9capsProbeEP7_GstPadP16_GstPadProbeInfoPv@Qt_5_PRIVATE_API 5.10.1
 _ZN21QGstreamerBufferProbe9probeCapsEP8_GstCaps@Qt_5_PRIVATE_API 5.10.1
 _ZN21QGstreamerBufferProbeC1ENS_5FlagsE@Qt_5_PRIVATE_API 5.10.1
 _ZN21QGstreamerBufferProbeC2ENS_5FlagsE@Qt_5_PRIVATE_API 5.10.1
 _ZN21QGstreamerBufferProbeD0Ev@Qt_5_PRIVATE_API 5.10.1
 _ZN21QGstreamerBufferProbeD1Ev@Qt_5_PRIVATE_API 5.10.1
 _ZN21QGstreamerBufferProbeD2Ev@Qt_5_PRIVATE_API 5.10.1
 _ZN21QGstreamerVideoWindow11qt_metacallEN11QMetaObject4CallEiPPv@Qt_5_PRIVATE_API 5.10.1
 _ZN21QGstreamerVideoWindow11qt_metacastEPKc@Qt_5_PRIVATE_API 5.10.1
 _ZN21QGstreamerVideoWindow11setContrastEi@Qt_5_PRIVATE_API 5.10.1
 _ZN21QGstreamerVideoWindow11sinkChangedEv@Qt_5_PRIVATE_API 5.10.1
 _ZN21QGstreamerVideoWindow12readyChangedEb@Qt_5_PRIVATE_API 5.10.1
 _ZN21QGstreamerVideoWindow13setBrightnessEi@Qt_5_PRIVATE_API 5.10.1
 _ZN21QGstreamerVideoWindow13setFullScreenEb@Qt_5_PRIVATE_API 5.10.1
 _ZN21QGstreamerVideoWindow13setSaturationEi@Qt_5_PRIVATE_API 5.10.1
 _ZN21QGstreamerVideoWindow14setDisplayRectERK5QRect@Qt_5_PRIVATE_API 5.10.1
 _ZN21QGstreamerVideoWindow16staticMetaObjectE@Qt_5_PRIVATE_API 5.10.1
 _ZN21QGstreamerVideoWindow17processBusMessageERK17QGstreamerMessage@Qt_5_PRIVATE_API 5.10.1
 _ZN21QGstreamerVideoWindow18processSyncMessageERK17QGstreamerMessage@Qt_5_PRIVATE_API 5.10.1
 _ZN21QGstreamerVideoWindow18setAspectRatioModeEN2Qt15AspectRatioModeE@Qt_5_PRIVATE_API 5.10.1
 _ZN21QGstreamerVideoWindow6setHueEi@Qt_5_PRIVATE_API 5.10.1
 _ZN21QGstreamerVideoWindow7repaintEv@Qt_5_PRIVATE_API 5.10.1
 _ZN21QGstreamerVideoWindow8setWinIdEj@Qt_5_PRIVATE_API 5.10.1
 _ZN21QGstreamerVideoWindow9videoSinkEv@Qt_5_PRIVATE_API 5.10.1
 _ZN21QGstreamerVideoWindowC1EP7QObjectRK10QByteArray@Qt_5_PRIVATE_API 5.10.1
 _ZN21QGstreamerVideoWindowC2EP7QObjectRK10QByteArray@Qt_5_PRIVATE_API 5.10.1
 _ZN21QGstreamerVideoWindowD0Ev@Qt_5_PRIVATE_API 5.10.1
 _ZN21QGstreamerVideoWindowD1Ev@Qt_5_PRIVATE_API 5.10.1
 _ZN21QGstreamerVideoWindowD2Ev@Qt_5_PRIVATE_API 5.10.1
 _ZN23QGstVideoRendererPlugin11qt_metacallEN11QMetaObject4CallEiPPv@Qt_5_PRIVATE_API 5.10.1
 _ZN23QGstVideoRendererPlugin11qt_metacastEPKc@Qt_5_PRIVATE_API 5.10.1
 _ZN23QGstVideoRendererPlugin16staticMetaObjectE@Qt_5_PRIVATE_API 5.10.1
 _ZN23QGstVideoRendererPluginC1EP7QObject@Qt_5_PRIVATE_API 5.10.1
 _ZN23QGstVideoRendererPluginC2EP7QObject@Qt_5_PRIVATE_API 5.10.1
 _ZN23QGstreamerVideoRenderer10setSurfaceEP21QAbstractVideoSurface@Qt_5_PRIVATE_API 5.10.1
 _ZN23QGstreamerVideoRenderer11qt_metacallEN11QMetaObject4CallEiPPv@Qt_5_PRIVATE_API 5.10.1
 _ZN23QGstreamerVideoRenderer11qt_metacastEPKc@Qt_5_PRIVATE_API 5.10.1
 _ZN23QGstreamerVideoRenderer11sinkChangedEv@Qt_5_PRIVATE_API 5.10.1
 _ZN23QGstreamerVideoRenderer12readyChangedEb@Qt_5_PRIVATE_API 5.10.1
 _ZN23QGstreamerVideoRenderer12stopRendererEv@Qt_5_PRIVATE_API 5.10.1
 _ZN23QGstreamerVideoRenderer16staticMetaObjectE@Qt_5_PRIVATE_API 5.10.1
 _ZN23QGstreamerVideoRenderer18handleFormatChangeEv@Qt_5_PRIVATE_API 5.10.1
 _ZN23QGstreamerVideoRenderer9videoSinkEv@Qt_5_PRIVATE_API 5.10.1
 _ZN23QGstreamerVideoRendererC1EP7QObject@Qt_5_PRIVATE_API 5.10.1
 _ZN23QGstreamerVideoRendererC2EP7QObject@Qt_5_PRIVATE_API 5.10.1
 _ZN23QGstreamerVideoRendererD0Ev@Qt_5_PRIVATE_API 5.10.1
 _ZN23QGstreamerVideoRendererD1Ev@Qt_5_PRIVATE_API 5.10.1
 _ZN23QGstreamerVideoRendererD2Ev@Qt_5_PRIVATE_API 5.10.1
 _ZN27QGstreamerAudioProbeControl11probeBufferEP10_GstBuffer@Qt_5_PRIVATE_API 5.10.1
 _ZN27QGstreamerAudioProbeControl11qt_metacallEN11QMetaObject4CallEiPPv@Qt_5_PRIVATE_API 5.10.1
 _ZN27QGstreamerAudioProbeControl11qt_metacastEPKc@Qt_5_PRIVATE_API 5.10.1
 _ZN27QGstreamerAudioProbeControl12bufferProbedEv@Qt_5_PRIVATE_API 5.10.1
 _ZN27QGstreamerAudioProbeControl16staticMetaObjectE@Qt_5_PRIVATE_API 5.10.1
 _ZN27QGstreamerAudioProbeControl9probeCapsEP8_GstCaps@Qt_5_PRIVATE_API 5.10.1
 _ZN27QGstreamerAudioProbeControlC1EP7QObject@Qt_5_PRIVATE_API 5.10.1
 _ZN27QGstreamerAudioProbeControlC2EP7QObject@Qt_5_PRIVATE_API 5.10.1
 _ZN27QGstreamerAudioProbeControlD0Ev@Qt_5_PRIVATE_API 5.10.1
 _ZN27QGstreamerAudioProbeControlD1Ev@Qt_5_PRIVATE_API 5.10.1
 _ZN27QGstreamerAudioProbeControlD2Ev@Qt_5_PRIVATE_API 5.10.1
 _ZN27QGstreamerVideoProbeControl11frameProbedEv@Qt_5_PRIVATE_API 5.10.1
 _ZN27QGstreamerVideoProbeControl11probeBufferEP10_GstBuffer@Qt_5_PRIVATE_API 5.10.1
 _ZN27QGstreamerVideoProbeControl11qt_metacallEN11QMetaObject4CallEiPPv@Qt_5_PRIVATE_API 5.10.1
 _ZN27QGstreamerVideoProbeControl11qt_metacastEPKc@Qt_5_PRIVATE_API 5.10.1
 _ZN27QGstreamerVideoProbeControl12stopFlushingEv@Qt_5_PRIVATE_API 5.10.1
 _ZN27QGstreamerVideoProbeControl13startFlushingEv@Qt_5_PRIVATE_API 5.10.1
 _ZN27QGstreamerVideoProbeControl16staticMetaObjectE@Qt_5_PRIVATE_API 5.10.1
 _ZN27QGstreamerVideoProbeControl9probeCapsEP8_GstCaps@Qt_5_PRIVATE_API 5.10.1
 _ZN27QGstreamerVideoProbeControlC1EP7QObject@Qt_5_PRIVATE_API 5.10.1
 _ZN27QGstreamerVideoProbeControlC2EP7QObject@Qt_5_PRIVATE_API 5.10.1
 _ZN27QGstreamerVideoProbeControlD0Ev@Qt_5_PRIVATE_API 5.10.1
 _ZN27QGstreamerVideoProbeControlD1Ev@Qt_5_PRIVATE_API 5.10.1
 _ZN27QGstreamerVideoProbeControlD2Ev@Qt_5_PRIVATE_API 5.10.1
 _ZN28QGstreamerAudioInputSelector11qt_metacallEN11QMetaObject4CallEiPPv@Qt_5_PRIVATE_API 5.10.1
 _ZN28QGstreamerAudioInputSelector11qt_metacastEPKc@Qt_5_PRIVATE_API 5.10.1
 _ZN28QGstreamerAudioInputSelector14setActiveInputERK7QString@Qt_5_PRIVATE_API 5.10.1
 _ZN28QGstreamerAudioInputSelector16staticMetaObjectE@Qt_5_PRIVATE_API 5.10.1
 _ZN28QGstreamerAudioInputSelector16updateOssDevicesEv@Qt_5_PRIVATE_API 5.10.1
 _ZN28QGstreamerAudioInputSelector17updateAlsaDevicesEv@Qt_5_PRIVATE_API 5.10.1
 _ZN28QGstreamerAudioInputSelector18updatePulseDevicesEv@Qt_5_PRIVATE_API 5.10.1
 _ZN28QGstreamerAudioInputSelector6updateEv@Qt_5_PRIVATE_API 5.10.1
 _ZN28QGstreamerAudioInputSelectorC1EP7QObject@Qt_5_PRIVATE_API 5.10.1
 _ZN28QGstreamerAudioInputSelectorC2EP7QObject@Qt_5_PRIVATE_API 5.10.1
 _ZN28QGstreamerAudioInputSelectorD0Ev@Qt_5_PRIVATE_API 5.10.1
 _ZN28QGstreamerAudioInputSelectorD1Ev@Qt_5_PRIVATE_API 5.10.1
 _ZN28QGstreamerAudioInputSelectorD2Ev@Qt_5_PRIVATE_API 5.10.1
 _ZN28QGstreamerVideoWidgetControl11eventFilterEP7QObjectP6QEvent@Qt_5_PRIVATE_API 5.10.1
 _ZN28QGstreamerVideoWidgetControl11qt_metacallEN11QMetaObject4CallEiPPv@Qt_5_PRIVATE_API 5.10.1
 _ZN28QGstreamerVideoWidgetControl11qt_metacastEPKc@Qt_5_PRIVATE_API 5.10.1
 _ZN28QGstreamerVideoWidgetControl11setContrastEi@Qt_5_PRIVATE_API 5.10.1
 _ZN28QGstreamerVideoWidgetControl11sinkChangedEv@Qt_5_PRIVATE_API 5.10.1
 _ZN28QGstreamerVideoWidgetControl11videoWidgetEv@Qt_5_PRIVATE_API 5.10.1
 _ZN28QGstreamerVideoWidgetControl12readyChangedEb@Qt_5_PRIVATE_API 5.10.1
 _ZN28QGstreamerVideoWidgetControl12stopRendererEv@Qt_5_PRIVATE_API 5.10.1
 _ZN28QGstreamerVideoWidgetControl13setBrightnessEi@Qt_5_PRIVATE_API 5.10.1
 _ZN28QGstreamerVideoWidgetControl13setFullScreenEb@Qt_5_PRIVATE_API 5.10.1
 _ZN28QGstreamerVideoWidgetControl13setSaturationEi@Qt_5_PRIVATE_API 5.10.1
 _ZN28QGstreamerVideoWidgetControl16staticMetaObjectE@Qt_5_PRIVATE_API 5.10.1
 _ZN28QGstreamerVideoWidgetControl17createVideoWidgetEv@Qt_5_PRIVATE_API 5.10.1
 _ZN28QGstreamerVideoWidgetControl17processBusMessageERK17QGstreamerMessage@Qt_5_PRIVATE_API 5.10.1
 _ZN28QGstreamerVideoWidgetControl18processSyncMessageERK17QGstreamerMessage@Qt_5_PRIVATE_API 5.10.1
 _ZN28QGstreamerVideoWidgetControl18setAspectRatioModeEN2Qt15AspectRatioModeE@Qt_5_PRIVATE_API 5.10.1
 _ZN28QGstreamerVideoWidgetControl22onOverlayActiveChangedEv@Qt_5_PRIVATE_API 5.10.1
 _ZN28QGstreamerVideoWidgetControl22updateWidgetAttributesEv@Qt_5_PRIVATE_API 5.10.1
 _ZN28QGstreamerVideoWidgetControl24onNativeVideoSizeChangedEv@Qt_5_PRIVATE_API 5.10.1
 _ZN28QGstreamerVideoWidgetControl6setHueEi@Qt_5_PRIVATE_API 5.10.1
 _ZN28QGstreamerVideoWidgetControl9videoSinkEv@Qt_5_PRIVATE_API 5.10.1
 _ZN28QGstreamerVideoWidgetControlC1EP7QObjectRK10QByteArray@Qt_5_PRIVATE_API 5.10.1
 _ZN28QGstreamerVideoWidgetControlC2EP7QObjectRK10QByteArray@Qt_5_PRIVATE_API 5.10.1
 _ZN28QGstreamerVideoWidgetControlD0Ev@Qt_5_PRIVATE_API 5.10.1
 _ZN28QGstreamerVideoWidgetControlD1Ev@Qt_5_PRIVATE_API 5.10.1
 _ZN28QGstreamerVideoWidgetControlD2Ev@Qt_5_PRIVATE_API 5.10.1
 _ZN33QGstreamerVideoInputDeviceControl11qt_metacallEN11QMetaObject4CallEiPPv@Qt_5_PRIVATE_API 5.10.1
 _ZN33QGstreamerVideoInputDeviceControl11qt_metacastEPKc@Qt_5_PRIVATE_API 5.10.1
 _ZN33QGstreamerVideoInputDeviceControl16staticMetaObjectE@Qt_5_PRIVATE_API 5.10.1
 _ZN33QGstreamerVideoInputDeviceControl17setSelectedDeviceEi@Qt_5_PRIVATE_API 5.10.1
 _ZN33QGstreamerVideoInputDeviceControlC1EP18_GstElementFactoryP7QObject@Qt_5_PRIVATE_API 5.10.1
 _ZN33QGstreamerVideoInputDeviceControlC1EP7QObject@Qt_5_PRIVATE_API 5.10.1
 _ZN33QGstreamerVideoInputDeviceControlC2EP18_GstElementFactoryP7QObject@Qt_5_PRIVATE_API 5.10.1
 _ZN33QGstreamerVideoInputDeviceControlC2EP7QObject@Qt_5_PRIVATE_API 5.10.1
 _ZN33QGstreamerVideoInputDeviceControlD0Ev@Qt_5_PRIVATE_API 5.10.1
 _ZN33QGstreamerVideoInputDeviceControlD1Ev@Qt_5_PRIVATE_API 5.10.1
 _ZN33QGstreamerVideoInputDeviceControlD2Ev@Qt_5_PRIVATE_API 5.10.1
 _ZN9QGstUtils10hasSupportERK7QStringRK11QStringListRK4QSetIS0_E@Qt_5_PRIVATE_API 5.10.1
 _ZN9QGstUtils11setMetaDataEP11_GstElementRK4QMapI10QByteArray8QVariantE@Qt_5_PRIVATE_API 5.10.1
 _ZN9QGstUtils11setMetaDataEP7_GstBinRK4QMapI10QByteArray8QVariantE@Qt_5_PRIVATE_API 5.10.1
 _ZN9QGstUtils12cameraDriverERK7QStringP18_GstElementFactory@Qt_5_PRIVATE_API 5.10.1
 _ZN9QGstUtils13bufferToImageEP10_GstBufferRK13_GstVideoInfo@Qt_5_PRIVATE_API 5.10.1
 _ZN9QGstUtils13cameraDevicesEP18_GstElementFactory@Qt_5_PRIVATE_API 5.10.1
 _ZN9QGstUtils13formatForCapsEP8_GstCapsP13_GstVideoInfoN20QAbstractVideoBuffer10HandleTypeE@Qt_5_PRIVATE_API 5.10.1
 _ZN9QGstUtils13initializeGstEv@Qt_5_PRIVATE_API 5.10.1
 _ZN9QGstUtils14cameraPositionERK7QStringP18_GstElementFactory@Qt_5_PRIVATE_API 5.10.1
 _ZN9QGstUtils14capsForFormatsERK5QListIN11QVideoFrame11PixelFormatEE@Qt_5_PRIVATE_API 5.10.1
 _ZN9QGstUtils14capsResolutionEPK8_GstCaps@Qt_5_PRIVATE_API 5.10.1
 _ZN9QGstUtils15gstTagListToMapEPK11_GstTagList@Qt_5_PRIVATE_API 5.10.1
 _ZN9QGstUtils15videoFilterCapsEv@Qt_5_PRIVATE_API 5.10.1
 _ZN9QGstUtils16enumerateCamerasEP18_GstElementFactory@Qt_5_PRIVATE_API 5.10.1
 _ZN9QGstUtils17cameraDescriptionERK7QStringP18_GstElementFactory@Qt_5_PRIVATE_API 5.10.1
 _ZN9QGstUtils17cameraOrientationERK7QStringP18_GstElementFactory@Qt_5_PRIVATE_API 5.10.1
 _ZN9QGstUtils18audioFormatForCapsEPK8_GstCaps@Qt_5_PRIVATE_API 5.10.1
 _ZN9QGstUtils18capsForAudioFormatERK12QAudioFormat@Qt_5_PRIVATE_API 5.10.1
 _ZN9QGstUtils18supportedMimeTypesEPFbP18_GstElementFactoryE@Qt_5_PRIVATE_API 5.10.1
 _ZN9QGstUtils19structureResolutionEPK13_GstStructure@Qt_5_PRIVATE_API 5.10.1
 _ZN9QGstUtils20audioFormatForSampleEP10_GstSample@Qt_5_PRIVATE_API 5.10.1
 _ZN9QGstUtils20structurePixelFormatEPK13_GstStructurePi@Qt_5_PRIVATE_API 5.10.1
 _ZN9QGstUtils23capsCorrectedResolutionEPK8_GstCaps@Qt_5_PRIVATE_API 5.10.1
 _ZN9QGstUtils23structureFrameRateRangeEPK13_GstStructure@Qt_5_PRIVATE_API 5.10.1
 _ZN9QGstUtils24fileExtensionForMimeTypeERK7QString@Qt_5_PRIVATE_API 5.10.1
 _ZN9QGstUtils25structurePixelAspectRatioEPK13_GstStructure@Qt_5_PRIVATE_API 5.10.1
 _ZNK10QGstAppSrc10metaObjectEv@Qt_5_PRIVATE_API 5.10.1
 _ZNK10QGstAppSrc6streamEv@Qt_5_PRIVATE_API 5.10.1
 _ZNK14QGstCodecsInfo12codecElementERK7QString@Qt_5_PRIVATE_API 5.10.1
 _ZNK14QGstCodecsInfo12codecOptionsERK7QString@Qt_5_PRIVATE_API 5.10.1
 _ZNK14QGstCodecsInfo15supportedCodecsEv@Qt_5_PRIVATE_API 5.10.1
 _ZNK14QGstCodecsInfo16codecDescriptionERK7QString@Qt_5_PRIVATE_API 5.10.1
 _ZNK14QGstCodecsInfo16elementFactoriesENS_11ElementTypeE@Qt_5_PRIVATE_API 5.10.1
 _ZNK15QGstVideoBuffer7mapModeEv@Qt_5_PRIVATE_API 5.10.1
 _ZNK17QGstreamerMessage10rawMessageEv@Qt_5_PRIVATE_API 5.10.1
 _ZNK19QGstreamerBusHelper10metaObjectEv@Qt_5_PRIVATE_API 5.10.1
 _ZNK21QGstreamerVideoWindow10brightnessEv@Qt_5_PRIVATE_API 5.10.1
 _ZNK21QGstreamerVideoWindow10metaObjectEv@Qt_5_PRIVATE_API 5.10.1
 _ZNK21QGstreamerVideoWindow10nativeSizeEv@Qt_5_PRIVATE_API 5.10.1
 _ZNK21QGstreamerVideoWindow10saturationEv@Qt_5_PRIVATE_API 5.10.1
 _ZNK21QGstreamerVideoWindow11displayRectEv@Qt_5_PRIVATE_API 5.10.1
 _ZNK21QGstreamerVideoWindow12isFullScreenEv@Qt_5_PRIVATE_API 5.10.1
 _ZNK21QGstreamerVideoWindow15aspectRatioModeEv@Qt_5_PRIVATE_API 5.10.1
 _ZNK21QGstreamerVideoWindow3hueEv@Qt_5_PRIVATE_API 5.10.1
 _ZNK21QGstreamerVideoWindow5winIdEv@Qt_5_PRIVATE_API 5.10.1
 _ZNK21QGstreamerVideoWindow8contrastEv@Qt_5_PRIVATE_API 5.10.1
 _ZNK23QGstVideoRendererPlugin10metaObjectEv@Qt_5_PRIVATE_API 5.10.1
 _ZNK23QGstreamerVideoRenderer10metaObjectEv@Qt_5_PRIVATE_API 5.10.1
 _ZNK23QGstreamerVideoRenderer7surfaceEv@Qt_5_PRIVATE_API 5.10.1
 _ZNK27QGstreamerAudioProbeControl10metaObjectEv@Qt_5_PRIVATE_API 5.10.1
 _ZNK27QGstreamerVideoProbeControl10metaObjectEv@Qt_5_PRIVATE_API 5.10.1
 _ZNK28QGstreamerAudioInputSelector10metaObjectEv@Qt_5_PRIVATE_API 5.10.1
 _ZNK28QGstreamerAudioInputSelector11activeInputEv@Qt_5_PRIVATE_API 5.10.1
 _ZNK28QGstreamerAudioInputSelector12defaultInputEv@Qt_5_PRIVATE_API 5.10.1
 _ZNK28QGstreamerAudioInputSelector15availableInputsEv@Qt_5_PRIVATE_API 5.10.1
 _ZNK28QGstreamerAudioInputSelector16inputDescriptionERK7QString@Qt_5_PRIVATE_API 5.10.1
 _ZNK28QGstreamerVideoWidgetControl10brightnessEv@Qt_5_PRIVATE_API 5.10.1
 _ZNK28QGstreamerVideoWidgetControl10metaObjectEv@Qt_5_PRIVATE_API 5.10.1
 _ZNK28QGstreamerVideoWidgetControl10saturationEv@Qt_5_PRIVATE_API 5.10.1
 _ZNK28QGstreamerVideoWidgetControl12isFullScreenEv@Qt_5_PRIVATE_API 5.10.1
 _ZNK28QGstreamerVideoWidgetControl15aspectRatioModeEv@Qt_5_PRIVATE_API 5.10.1
 _ZNK28QGstreamerVideoWidgetControl3hueEv@Qt_5_PRIVATE_API 5.10.1
 _ZNK28QGstreamerVideoWidgetControl8contrastEv@Qt_5_PRIVATE_API 5.10.1
 _ZNK33QGstreamerVideoInputDeviceControl10deviceNameEi@Qt_5_PRIVATE_API 5.10.1
 _ZNK33QGstreamerVideoInputDeviceControl10metaObjectEv@Qt_5_PRIVATE_API 5.10.1
 _ZNK33QGstreamerVideoInputDeviceControl11deviceCountEv@Qt_5_PRIVATE_API 5.10.1
 _ZNK33QGstreamerVideoInputDeviceControl13defaultDeviceEv@Qt_5_PRIVATE_API 5.10.1
 _ZNK33QGstreamerVideoInputDeviceControl14selectedDeviceEv@Qt_5_PRIVATE_API 5.10.1
 _ZNK33QGstreamerVideoInputDeviceControl17deviceDescriptionEi@Qt_5_PRIVATE_API 5.10.1
 _ZTI10QGstAppSrc@Qt_5_PRIVATE_API 5.10.1
 _ZTI11QSharedData@Qt_5_PRIVATE_API 5.10.1
 _ZTI15QGstVideoBuffer@Qt_5_PRIVATE_API 5.10.1
 _ZTI17QGstVideoRenderer@Qt_5_PRIVATE_API 5.10.1
 _ZTI19QGstreamerBusHelper@Qt_5_PRIVATE_API 5.10.1
 _ZTI21QGstreamerBufferProbe@Qt_5_PRIVATE_API 5.10.1
 _ZTI21QGstreamerVideoWidget@Qt_5_PRIVATE_API 5.10.1
 _ZTI21QGstreamerVideoWindow@Qt_5_PRIVATE_API 5.10.1
 _ZTI23QGstVideoRendererPlugin@Qt_5_PRIVATE_API 5.10.1
 _ZTI23QGstreamerVideoRenderer@Qt_5_PRIVATE_API 5.10.1
 _ZTI26QGstVideoRendererInterface@Qt_5_PRIVATE_API 5.10.1
 _ZTI27QGstreamerAudioProbeControl@Qt_5_PRIVATE_API 5.10.1
 _ZTI27QGstreamerVideoProbeControl@Qt_5_PRIVATE_API 5.10.1
 _ZTI28QGstreamerAudioInputSelector@Qt_5_PRIVATE_API 5.10.1
 _ZTI28QGstreamerVideoWidgetControl@Qt_5_PRIVATE_API 5.10.1
 _ZTI33QGstreamerVideoInputDeviceControl@Qt_5_PRIVATE_API 5.10.1
 _ZTS10QGstAppSrc@Qt_5_PRIVATE_API 5.10.1
 _ZTS11QSharedData@Qt_5_PRIVATE_API 5.10.1
 _ZTS15QGstVideoBuffer@Qt_5_PRIVATE_API 5.10.1
 _ZTS17QGstVideoRenderer@Qt_5_PRIVATE_API 5.10.1
 _ZTS19QGstreamerBusHelper@Qt_5_PRIVATE_API 5.10.1
 _ZTS21QGstreamerBufferProbe@Qt_5_PRIVATE_API 5.10.1
 _ZTS21QGstreamerVideoWidget@Qt_5_PRIVATE_API 5.10.1
 _ZTS21QGstreamerVideoWindow@Qt_5_PRIVATE_API 5.10.1
 _ZTS23QGstVideoRendererPlugin@Qt_5_PRIVATE_API 5.10.1
 _ZTS23QGstreamerVideoRenderer@Qt_5_PRIVATE_API 5.10.1
 _ZTS26QGstVideoRendererInterface@Qt_5_PRIVATE_API 5.10.1
 _ZTS27QGstreamerAudioProbeControl@Qt_5_PRIVATE_API 5.10.1
 _ZTS27QGstreamerVideoProbeControl@Qt_5_PRIVATE_API 5.10.1
 _ZTS28QGstreamerAudioInputSelector@Qt_5_PRIVATE_API 5.10.1
 _ZTS28QGstreamerVideoWidgetControl@Qt_5_PRIVATE_API 5.10.1
 _ZTS33QGstreamerVideoInputDeviceControl@Qt_5_PRIVATE_API 5.10.1
 _ZTV10QGstAppSrc@Qt_5_PRIVATE_API 5.10.1
 _ZTV15QGstVideoBuffer@Qt_5_PRIVATE_API 5.10.1
 _ZTV19QGstreamerBusHelper@Qt_5_PRIVATE_API 5.10.1
 _ZTV21QGstreamerBufferProbe@Qt_5_PRIVATE_API 5.10.1
 _ZTV21QGstreamerVideoWidget@Qt_5_PRIVATE_API 5.10.1
 _ZTV21QGstreamerVideoWindow@Qt_5_PRIVATE_API 5.10.1
 _ZTV23QGstVideoRendererPlugin@Qt_5_PRIVATE_API 5.10.1
 _ZTV23QGstreamerVideoRenderer@Qt_5_PRIVATE_API 5.10.1
 _ZTV27QGstreamerAudioProbeControl@Qt_5_PRIVATE_API 5.10.1
 _ZTV27QGstreamerVideoProbeControl@Qt_5_PRIVATE_API 5.10.1
 _ZTV28QGstreamerAudioInputSelector@Qt_5_PRIVATE_API 5.10.1
 _ZTV28QGstreamerVideoWidgetControl@Qt_5_PRIVATE_API 5.10.1
 _ZTV33QGstreamerVideoInputDeviceControl@Qt_5_PRIVATE_API 5.10.1
 _ZThn12_N21QGstreamerVideoWindow9videoSinkEv@Qt_5_PRIVATE_API 5.10.1
 _ZThn12_N21QGstreamerVideoWindowD0Ev@Qt_5_PRIVATE_API 5.10.1
 _ZThn12_N21QGstreamerVideoWindowD1Ev@Qt_5_PRIVATE_API 5.10.1
 _ZThn12_N23QGstreamerVideoRenderer12stopRendererEv@Qt_5_PRIVATE_API 5.10.1
 _ZThn12_N23QGstreamerVideoRenderer9videoSinkEv@Qt_5_PRIVATE_API 5.10.1
 _ZThn12_N23QGstreamerVideoRendererD0Ev@Qt_5_PRIVATE_API 5.10.1
 _ZThn12_N23QGstreamerVideoRendererD1Ev@Qt_5_PRIVATE_API 5.10.1
 _ZThn12_N27QGstreamerAudioProbeControl11probeBufferEP10_GstBuffer@Qt_5_PRIVATE_API 5.10.1
 _ZThn12_N27QGstreamerAudioProbeControl9probeCapsEP8_GstCaps@Qt_5_PRIVATE_API 5.10.1
 _ZThn12_N27QGstreamerAudioProbeControlD0Ev@Qt_5_PRIVATE_API 5.10.1
 _ZThn12_N27QGstreamerAudioProbeControlD1Ev@Qt_5_PRIVATE_API 5.10.1
 _ZThn12_N27QGstreamerVideoProbeControl11probeBufferEP10_GstBuffer@Qt_5_PRIVATE_API 5.10.1
 _ZThn12_N27QGstreamerVideoProbeControl9probeCapsEP8_GstCaps@Qt_5_PRIVATE_API 5.10.1
 _ZThn12_N27QGstreamerVideoProbeControlD0Ev@Qt_5_PRIVATE_API 5.10.1
 _ZThn12_N27QGstreamerVideoProbeControlD1Ev@Qt_5_PRIVATE_API 5.10.1
 _ZThn12_N28QGstreamerVideoWidgetControl12stopRendererEv@Qt_5_PRIVATE_API 5.10.1
 _ZThn12_N28QGstreamerVideoWidgetControl9videoSinkEv@Qt_5_PRIVATE_API 5.10.1
 _ZThn12_N28QGstreamerVideoWidgetControlD0Ev@Qt_5_PRIVATE_API 5.10.1
 _ZThn12_N28QGstreamerVideoWidgetControlD1Ev@Qt_5_PRIVATE_API 5.10.1
 _ZThn16_N21QGstreamerVideoWindow18processSyncMessageERK17QGstreamerMessage@Qt_5_PRIVATE_API 5.10.1
 _ZThn16_N28QGstreamerVideoWidgetControl18processSyncMessageERK17QGstreamerMessage@Qt_5_PRIVATE_API 5.10.1
 _ZThn20_N21QGstreamerVideoWindow17processBusMessageERK17QGstreamerMessage@Qt_5_PRIVATE_API 5.10.1
 _ZThn20_N28QGstreamerVideoWidgetControl17processBusMessageERK17QGstreamerMessage@Qt_5_PRIVATE_API 5.10.1
 _Zls6QDebugP8_GstCaps@Qt_5_PRIVATE_API 5.10.1
