libQt5Charts.so.5 libqt5charts5 #MINVER#
 Qt_5.0@Qt_5.0 5.7.1
 Qt_5.10@Qt_5.10 5.10.1
 Qt_5.11@Qt_5.11 5.11.1
 Qt_5.1@Qt_5.1 5.7.1
 Qt_5.2@Qt_5.2 5.7.1
 Qt_5.3@Qt_5.3 5.7.1
 Qt_5.4@Qt_5.4 5.7.1
 Qt_5.5@Qt_5.5 5.7.1
 Qt_5.6@Qt_5.6 5.7.1
 Qt_5.7@Qt_5.7 5.7.1
 Qt_5.8@Qt_5.8 5.9.0~rc
 Qt_5.9@Qt_5.9 5.9.0~rc
 Qt_5@Qt_5 5.7.1
 Qt_5_PRIVATE_API@Qt_5_PRIVATE_API 5.7.1
 _ZN8QtCharts10ChartTitle11setGeometryERK6QRectF@Qt_5 5.10.1
 _ZN8QtCharts10ChartTitle7setTextERK7QString@Qt_5 5.10.1
 _ZN8QtCharts10ChartTitleC1EP13QGraphicsItem@Qt_5 5.10.1
 _ZN8QtCharts10ChartTitleC2EP13QGraphicsItem@Qt_5 5.10.1
 _ZN8QtCharts10ChartTitleD0Ev@Qt_5 5.10.1
 _ZN8QtCharts10ChartTitleD1Ev@Qt_5 5.10.1
 _ZN8QtCharts10ChartTitleD2Ev@Qt_5 5.10.1
 _ZN8QtCharts10QBarSeries11qt_metacallEN11QMetaObject4CallEiPPv@Qt_5 5.7.1
 _ZN8QtCharts10QBarSeries11qt_metacastEPKc@Qt_5 5.7.1
 _ZN8QtCharts10QBarSeries16staticMetaObjectE@Qt_5 5.7.1
 _ZN8QtCharts10QBarSeriesC1EP7QObject@Qt_5 5.7.1
 _ZN8QtCharts10QBarSeriesC2EP7QObject@Qt_5 5.7.1
 _ZN8QtCharts10QBarSeriesD0Ev@Qt_5 5.7.1
 _ZN8QtCharts10QBarSeriesD1Ev@Qt_5 5.7.1
 _ZN8QtCharts10QBarSeriesD2Ev@Qt_5 5.7.1
 _ZN8QtCharts10QChartView11qt_metacallEN11QMetaObject4CallEiPPv@Qt_5 5.7.1
 _ZN8QtCharts10QChartView11qt_metacastEPKc@Qt_5 5.7.1
 _ZN8QtCharts10QChartView11resizeEventEP12QResizeEvent@Qt_5 5.7.1
 _ZN8QtCharts10QChartView13setRubberBandERK6QFlagsINS0_10RubberBandEE@Qt_5 5.7.1
 _ZN8QtCharts10QChartView14mouseMoveEventEP11QMouseEvent@Qt_5 5.7.1
 _ZN8QtCharts10QChartView15mousePressEventEP11QMouseEvent@Qt_5 5.7.1
 _ZN8QtCharts10QChartView16staticMetaObjectE@Qt_5 5.7.1
 _ZN8QtCharts10QChartView17mouseReleaseEventEP11QMouseEvent@Qt_5 5.7.1
 _ZN8QtCharts10QChartView8setChartEPNS_6QChartE@Qt_5 5.7.1
 _ZN8QtCharts10QChartViewC1EP7QWidget@Qt_5 5.7.1
 _ZN8QtCharts10QChartViewC1EPNS_6QChartEP7QWidget@Qt_5 5.7.1
 _ZN8QtCharts10QChartViewC2EP7QWidget@Qt_5 5.7.1
 _ZN8QtCharts10QChartViewC2EPNS_6QChartEP7QWidget@Qt_5 5.7.1
 _ZN8QtCharts10QChartViewD0Ev@Qt_5 5.7.1
 _ZN8QtCharts10QChartViewD1Ev@Qt_5 5.7.1
 _ZN8QtCharts10QChartViewD2Ev@Qt_5 5.7.1
 _ZN8QtCharts10QPieSeries10setPieSizeEd@Qt_5 5.7.1
 _ZN8QtCharts10QPieSeries10sumChangedEv@Qt_5 5.7.1
 _ZN8QtCharts10QPieSeries11qt_metacallEN11QMetaObject4CallEiPPv@Qt_5 5.7.1
 _ZN8QtCharts10QPieSeries11qt_metacastEPKc@Qt_5 5.7.1
 _ZN8QtCharts10QPieSeries11setHoleSizeEd@Qt_5 5.7.1
 _ZN8QtCharts10QPieSeries12countChangedEv@Qt_5 5.7.1
 _ZN8QtCharts10QPieSeries13doubleClickedEPNS_9QPieSliceE@Qt_5 5.7.1
 _ZN8QtCharts10QPieSeries14setPieEndAngleEd@Qt_5 5.7.1
 _ZN8QtCharts10QPieSeries16setLabelsVisibleEb@Qt_5 5.7.1
 _ZN8QtCharts10QPieSeries16setPieStartAngleEd@Qt_5 5.7.1
 _ZN8QtCharts10QPieSeries16staticMetaObjectE@Qt_5 5.7.1
 _ZN8QtCharts10QPieSeries17setLabelsPositionENS_9QPieSlice13LabelPositionE@Qt_5 5.7.1
 _ZN8QtCharts10QPieSeries19setVerticalPositionEd@Qt_5 5.7.1
 _ZN8QtCharts10QPieSeries21setHorizontalPositionEd@Qt_5 5.7.1
 _ZN8QtCharts10QPieSeries4takeEPNS_9QPieSliceE@Qt_5 5.7.1
 _ZN8QtCharts10QPieSeries5addedE5QListIPNS_9QPieSliceEE@Qt_5 5.7.1
 _ZN8QtCharts10QPieSeries5clearEv@Qt_5 5.7.1
 _ZN8QtCharts10QPieSeries6appendE5QListIPNS_9QPieSliceEE@Qt_5 5.7.1
 _ZN8QtCharts10QPieSeries6appendE7QStringd@Qt_5 5.7.1
 _ZN8QtCharts10QPieSeries6appendEPNS_9QPieSliceE@Qt_5 5.7.1
 _ZN8QtCharts10QPieSeries6insertEiPNS_9QPieSliceE@Qt_5 5.7.1
 _ZN8QtCharts10QPieSeries6removeEPNS_9QPieSliceE@Qt_5 5.7.1
 _ZN8QtCharts10QPieSeries7clickedEPNS_9QPieSliceE@Qt_5 5.7.1
 _ZN8QtCharts10QPieSeries7hoveredEPNS_9QPieSliceEb@Qt_5 5.7.1
 _ZN8QtCharts10QPieSeries7pressedEPNS_9QPieSliceE@Qt_5 5.7.1
 _ZN8QtCharts10QPieSeries7removedE5QListIPNS_9QPieSliceEE@Qt_5 5.7.1
 _ZN8QtCharts10QPieSeries8releasedEPNS_9QPieSliceE@Qt_5 5.7.1
 _ZN8QtCharts10QPieSeriesC1EP7QObject@Qt_5 5.7.1
 _ZN8QtCharts10QPieSeriesC2EP7QObject@Qt_5 5.7.1
 _ZN8QtCharts10QPieSeriesD0Ev@Qt_5 5.7.1
 _ZN8QtCharts10QPieSeriesD1Ev@Qt_5 5.7.1
 _ZN8QtCharts10QPieSeriesD2Ev@Qt_5 5.7.1
 _ZN8QtCharts10QPieSerieslsEPNS_9QPieSliceE@Qt_5 5.7.1
 _ZN8QtCharts10QValueAxis10maxChangedEd@Qt_5 5.7.1
 _ZN8QtCharts10QValueAxis10minChangedEd@Qt_5 5.7.1
 _ZN8QtCharts10QValueAxis11qt_metacallEN11QMetaObject4CallEiPPv@Qt_5 5.7.1
 _ZN8QtCharts10QValueAxis11qt_metacastEPKc@Qt_5 5.7.1
 _ZN8QtCharts10QValueAxis12rangeChangedEdd@Qt_5 5.7.1
 _ZN8QtCharts10QValueAxis12setTickCountEi@Qt_5 5.7.1
 _ZN8QtCharts10QValueAxis14setLabelFormatERK7QString@Qt_5 5.7.1
 _ZN8QtCharts10QValueAxis16applyNiceNumbersEv@Qt_5 5.7.1
 _ZN8QtCharts10QValueAxis16staticMetaObjectE@Qt_5 5.7.1
 _ZN8QtCharts10QValueAxis16tickCountChangedEi@Qt_5 5.7.1
 _ZN8QtCharts10QValueAxis17setMinorTickCountEi@Qt_5 5.7.1
 _ZN8QtCharts10QValueAxis18labelFormatChangedERK7QString@Qt_5 5.7.1
 _ZN8QtCharts10QValueAxis21minorTickCountChangedEi@Qt_5 5.7.1
 _ZN8QtCharts10QValueAxis6setMaxEd@Qt_5 5.7.1
 _ZN8QtCharts10QValueAxis6setMinEd@Qt_5 5.7.1
 _ZN8QtCharts10QValueAxis8setRangeEdd@Qt_5 5.7.1
 _ZN8QtCharts10QValueAxisC1EP7QObject@Qt_5 5.7.1
 _ZN8QtCharts10QValueAxisC1ERNS_17QValueAxisPrivateEP7QObject@Qt_5 5.7.1
 _ZN8QtCharts10QValueAxisC2EP7QObject@Qt_5 5.7.1
 _ZN8QtCharts10QValueAxisC2ERNS_17QValueAxisPrivateEP7QObject@Qt_5 5.7.1
 _ZN8QtCharts10QValueAxisD0Ev@Qt_5 5.7.1
 _ZN8QtCharts10QValueAxisD1Ev@Qt_5 5.7.1
 _ZN8QtCharts10QValueAxisD2Ev@Qt_5 5.7.1
 _ZN8QtCharts11BoxWhiskers11qt_metacallEN11QMetaObject4CallEiPPv@Qt_5 5.10.1
 _ZN8QtCharts11BoxWhiskers11qt_metacastEPKc@Qt_5 5.10.1
 _ZN8QtCharts11BoxWhiskers11setBoxWidthEd@Qt_5 5.10.1
 _ZN8QtCharts11BoxWhiskers11setGeometryERK6QRectF@Qt_5 5.10.1
 _ZN8QtCharts11BoxWhiskers13doubleClickedEPNS_7QBoxSetE@Qt_5 5.10.1
 _ZN8QtCharts11BoxWhiskers14updateGeometryEPNS_14AbstractDomainE@Qt_5 5.10.1
 _ZN8QtCharts11BoxWhiskers15hoverEnterEventEP24QGraphicsSceneHoverEvent@Qt_5 5.10.1
 _ZN8QtCharts11BoxWhiskers15hoverLeaveEventEP24QGraphicsSceneHoverEvent@Qt_5 5.10.1
 _ZN8QtCharts11BoxWhiskers15mousePressEventEP24QGraphicsSceneMouseEvent@Qt_5 5.10.1
 _ZN8QtCharts11BoxWhiskers16staticMetaObjectE@Qt_5 5.10.1
 _ZN8QtCharts11BoxWhiskers17mouseReleaseEventEP24QGraphicsSceneMouseEvent@Qt_5 5.10.1
 _ZN8QtCharts11BoxWhiskers21mouseDoubleClickEventEP24QGraphicsSceneMouseEvent@Qt_5 5.10.1
 _ZN8QtCharts11BoxWhiskers5paintEP8QPainterPK24QStyleOptionGraphicsItemP7QWidget@Qt_5 5.10.1
 _ZN8QtCharts11BoxWhiskers6setPenERK4QPen@Qt_5 5.10.1
 _ZN8QtCharts11BoxWhiskers7clickedEPNS_7QBoxSetE@Qt_5 5.10.1
 _ZN8QtCharts11BoxWhiskers7hoveredEbPNS_7QBoxSetE@Qt_5 5.10.1
 _ZN8QtCharts11BoxWhiskers7pressedEPNS_7QBoxSetE@Qt_5 5.10.1
 _ZN8QtCharts11BoxWhiskers8releasedEPNS_7QBoxSetE@Qt_5 5.10.1
 _ZN8QtCharts11BoxWhiskers8setBrushERK6QBrush@Qt_5 5.10.1
 _ZN8QtCharts11BoxWhiskers9setLayoutERKNS_15BoxWhiskersDataE@Qt_5 5.10.1
 _ZN8QtCharts11BoxWhiskersC1EPNS_7QBoxSetEPNS_14AbstractDomainEP15QGraphicsObject@Qt_5 5.10.1
 _ZN8QtCharts11BoxWhiskersC2EPNS_7QBoxSetEPNS_14AbstractDomainEP15QGraphicsObject@Qt_5 5.10.1
 _ZN8QtCharts11BoxWhiskersD0Ev@Qt_5 5.10.1
 _ZN8QtCharts11BoxWhiskersD1Ev@Qt_5 5.10.1
 _ZN8QtCharts11BoxWhiskersD2Ev@Qt_5 5.10.1
 _ZN8QtCharts11Candlestick11qt_metacallEN11QMetaObject4CallEiPPv@Qt_5 5.10.1
 _ZN8QtCharts11Candlestick11qt_metacastEPKc@Qt_5 5.10.1
 _ZN8QtCharts11Candlestick12setBodyWidthEd@Qt_5 5.10.1
 _ZN8QtCharts11Candlestick12setCapsWidthEd@Qt_5 5.10.1
 _ZN8QtCharts11Candlestick13doubleClickedEPNS_15QCandlestickSetE@Qt_5 5.10.1
 _ZN8QtCharts11Candlestick13setTimePeriodEd@Qt_5 5.10.1
 _ZN8QtCharts11Candlestick14setCapsVisibleEb@Qt_5 5.10.1
 _ZN8QtCharts11Candlestick14updateGeometryEPNS_14AbstractDomainE@Qt_5 5.10.1
 _ZN8QtCharts11Candlestick15hoverEnterEventEP24QGraphicsSceneHoverEvent@Qt_5 5.10.1
 _ZN8QtCharts11Candlestick15hoverLeaveEventEP24QGraphicsSceneHoverEvent@Qt_5 5.10.1
 _ZN8QtCharts11Candlestick15mousePressEventEP24QGraphicsSceneMouseEvent@Qt_5 5.10.1
 _ZN8QtCharts11Candlestick16staticMetaObjectE@Qt_5 5.10.1
 _ZN8QtCharts11Candlestick17mouseReleaseEventEP24QGraphicsSceneMouseEvent@Qt_5 5.10.1
 _ZN8QtCharts11Candlestick18setDecreasingColorERK6QColor@Qt_5 5.10.1
 _ZN8QtCharts11Candlestick18setIncreasingColorERK6QColor@Qt_5 5.10.1
 _ZN8QtCharts11Candlestick21mouseDoubleClickEventEP24QGraphicsSceneMouseEvent@Qt_5 5.10.1
 _ZN8QtCharts11Candlestick21setBodyOutlineVisibleEb@Qt_5 5.10.1
 _ZN8QtCharts11Candlestick21setMaximumColumnWidthEd@Qt_5 5.10.1
 _ZN8QtCharts11Candlestick21setMinimumColumnWidthEd@Qt_5 5.10.1
 _ZN8QtCharts11Candlestick5paintEP8QPainterPK24QStyleOptionGraphicsItemP7QWidget@Qt_5 5.10.1
 _ZN8QtCharts11Candlestick6setPenERK4QPen@Qt_5 5.10.1
 _ZN8QtCharts11Candlestick7clickedEPNS_15QCandlestickSetE@Qt_5 5.10.1
 _ZN8QtCharts11Candlestick7hoveredEbPNS_15QCandlestickSetE@Qt_5 5.10.1
 _ZN8QtCharts11Candlestick7pressedEPNS_15QCandlestickSetE@Qt_5 5.10.1
 _ZN8QtCharts11Candlestick8releasedEPNS_15QCandlestickSetE@Qt_5 5.10.1
 _ZN8QtCharts11Candlestick8setBrushERK6QBrush@Qt_5 5.10.1
 _ZN8QtCharts11Candlestick9setLayoutERKNS_15CandlestickDataE@Qt_5 5.10.1
 _ZN8QtCharts11CandlestickC1EPNS_15QCandlestickSetEPNS_14AbstractDomainEP15QGraphicsObject@Qt_5 5.10.1
 _ZN8QtCharts11CandlestickC2EPNS_15QCandlestickSetEPNS_14AbstractDomainEP15QGraphicsObject@Qt_5 5.10.1
 _ZN8QtCharts11CandlestickD0Ev@Qt_5 5.10.1
 _ZN8QtCharts11CandlestickD1Ev@Qt_5 5.10.1
 _ZN8QtCharts11CandlestickD2Ev@Qt_5 5.10.1
 _ZN8QtCharts11ChartConfig10m_instanceE@Qt_5 5.10.1
 _ZN8QtCharts11LogXYDomain10attachAxisEPNS_13QAbstractAxisE@Qt_5 5.10.1
 _ZN8QtCharts11LogXYDomain10detachAxisEPNS_13QAbstractAxisE@Qt_5 5.10.1
 _ZN8QtCharts11LogXYDomain11qt_metacallEN11QMetaObject4CallEiPPv@Qt_5 5.10.1
 _ZN8QtCharts11LogXYDomain11qt_metacastEPKc@Qt_5 5.10.1
 _ZN8QtCharts11LogXYDomain16staticMetaObjectE@Qt_5 5.10.1
 _ZN8QtCharts11LogXYDomain31handleHorizontalAxisBaseChangedEd@Qt_5 5.10.1
 _ZN8QtCharts11LogXYDomain4moveEdd@Qt_5 5.10.1
 _ZN8QtCharts11LogXYDomain6zoomInERK6QRectF@Qt_5 5.10.1
 _ZN8QtCharts11LogXYDomain7zoomOutERK6QRectF@Qt_5 5.10.1
 _ZN8QtCharts11LogXYDomain8setRangeEdddd@Qt_5 5.10.1
 _ZN8QtCharts11LogXYDomainC1EP7QObject@Qt_5 5.10.1
 _ZN8QtCharts11LogXYDomainC2EP7QObject@Qt_5 5.10.1
 _ZN8QtCharts11LogXYDomainD0Ev@Qt_5 5.10.1
 _ZN8QtCharts11LogXYDomainD1Ev@Qt_5 5.10.1
 _ZN8QtCharts11LogXYDomainD2Ev@Qt_5 5.10.1
 _ZN8QtCharts11PolarDomain11qt_metacallEN11QMetaObject4CallEiPPv@Qt_5 5.10.1
 _ZN8QtCharts11PolarDomain11qt_metacastEPKc@Qt_5 5.10.1
 _ZN8QtCharts11PolarDomain16staticMetaObjectE@Qt_5 5.10.1
 _ZN8QtCharts11PolarDomain7setSizeERK6QSizeF@Qt_5 5.10.1
 _ZN8QtCharts11PolarDomainC1EP7QObject@Qt_5 5.10.1
 _ZN8QtCharts11PolarDomainC2EP7QObject@Qt_5 5.10.1
 _ZN8QtCharts11PolarDomainD0Ev@Qt_5 5.10.1
 _ZN8QtCharts11PolarDomainD1Ev@Qt_5 5.10.1
 _ZN8QtCharts11PolarDomainD2Ev@Qt_5 5.10.1
 _ZN8QtCharts11QAreaSeries11qt_metacallEN11QMetaObject4CallEiPPv@Qt_5 5.7.1
 _ZN8QtCharts11QAreaSeries11qt_metacastEPKc@Qt_5 5.7.1
 _ZN8QtCharts11QAreaSeries12colorChangedE6QColor@Qt_5 5.7.1
 _ZN8QtCharts11QAreaSeries13doubleClickedERK7QPointF@Qt_5 5.7.1
 _ZN8QtCharts11QAreaSeries14setBorderColorERK6QColor@Qt_5 5.7.1
 _ZN8QtCharts11QAreaSeries14setLowerSeriesEPNS_11QLineSeriesE@Qt_5 5.7.1
 _ZN8QtCharts11QAreaSeries14setUpperSeriesEPNS_11QLineSeriesE@Qt_5 5.7.1
 _ZN8QtCharts11QAreaSeries16setPointsVisibleEb@Qt_5 5.7.1
 _ZN8QtCharts11QAreaSeries16staticMetaObjectE@Qt_5 5.7.1
 _ZN8QtCharts11QAreaSeries18borderColorChangedE6QColor@Qt_5 5.7.1
 _ZN8QtCharts11QAreaSeries18setPointLabelsFontERK5QFont@Qt_5 5.7.1
 _ZN8QtCharts11QAreaSeries19setPointLabelsColorERK6QColor@Qt_5 5.7.1
 _ZN8QtCharts11QAreaSeries20setPointLabelsFormatERK7QString@Qt_5 5.7.1
 _ZN8QtCharts11QAreaSeries21setPointLabelsVisibleEb@Qt_5 5.7.1
 _ZN8QtCharts11QAreaSeries22pointLabelsFontChangedERK5QFont@Qt_5 5.7.1
 _ZN8QtCharts11QAreaSeries22setPointLabelsClippingEb@Qt_5 5.7.1
 _ZN8QtCharts11QAreaSeries23pointLabelsColorChangedERK6QColor@Qt_5 5.7.1
 _ZN8QtCharts11QAreaSeries24pointLabelsFormatChangedERK7QString@Qt_5 5.7.1
 _ZN8QtCharts11QAreaSeries26pointLabelsClippingChangedEb@Qt_5 5.7.1
 _ZN8QtCharts11QAreaSeries28pointLabelsVisibilityChangedEb@Qt_5 5.7.1
 _ZN8QtCharts11QAreaSeries6setPenERK4QPen@Qt_5 5.7.1
 _ZN8QtCharts11QAreaSeries7clickedERK7QPointF@Qt_5 5.7.1
 _ZN8QtCharts11QAreaSeries7hoveredERK7QPointFb@Qt_5 5.7.1
 _ZN8QtCharts11QAreaSeries7pressedERK7QPointF@Qt_5 5.7.1
 _ZN8QtCharts11QAreaSeries8releasedERK7QPointF@Qt_5 5.7.1
 _ZN8QtCharts11QAreaSeries8selectedEv@Qt_5 5.7.1
 _ZN8QtCharts11QAreaSeries8setBrushERK6QBrush@Qt_5 5.7.1
 _ZN8QtCharts11QAreaSeries8setColorERK6QColor@Qt_5 5.7.1
 _ZN8QtCharts11QAreaSeriesC1EP7QObject@Qt_5 5.7.1
 _ZN8QtCharts11QAreaSeriesC1EPNS_11QLineSeriesES2_@Qt_5 5.7.1
 _ZN8QtCharts11QAreaSeriesC2EP7QObject@Qt_5 5.7.1
 _ZN8QtCharts11QAreaSeriesC2EPNS_11QLineSeriesES2_@Qt_5 5.7.1
 _ZN8QtCharts11QAreaSeriesD0Ev@Qt_5 5.7.1
 _ZN8QtCharts11QAreaSeriesD1Ev@Qt_5 5.7.1
 _ZN8QtCharts11QAreaSeriesD2Ev@Qt_5 5.7.1
 _ZN8QtCharts11QLineSeries11qt_metacallEN11QMetaObject4CallEiPPv@Qt_5 5.7.1
 _ZN8QtCharts11QLineSeries11qt_metacastEPKc@Qt_5 5.7.1
 _ZN8QtCharts11QLineSeries16staticMetaObjectE@Qt_5 5.7.1
 _ZN8QtCharts11QLineSeriesC1EP7QObject@Qt_5 5.7.1
 _ZN8QtCharts11QLineSeriesC1ERNS_18QLineSeriesPrivateEP7QObject@Qt_5 5.7.1
 _ZN8QtCharts11QLineSeriesC2EP7QObject@Qt_5 5.7.1
 _ZN8QtCharts11QLineSeriesC2ERNS_18QLineSeriesPrivateEP7QObject@Qt_5 5.7.1
 _ZN8QtCharts11QLineSeriesD0Ev@Qt_5 5.7.1
 _ZN8QtCharts11QLineSeriesD1Ev@Qt_5 5.7.1
 _ZN8QtCharts11QLineSeriesD2Ev@Qt_5 5.7.1
 _ZN8QtCharts11QPolarChart11qt_metacallEN11QMetaObject4CallEiPPv@Qt_5 5.7.1
 _ZN8QtCharts11QPolarChart11qt_metacastEPKc@Qt_5 5.7.1
 _ZN8QtCharts11QPolarChart16staticMetaObjectE@Qt_5 5.7.1
 _ZN8QtCharts11QPolarChart20axisPolarOrientationEPNS_13QAbstractAxisE@Qt_5 5.7.1
 _ZN8QtCharts11QPolarChart7addAxisEPNS_13QAbstractAxisENS0_16PolarOrientationE@Qt_5 5.7.1
 _ZN8QtCharts11QPolarChartC1EP13QGraphicsItem6QFlagsIN2Qt10WindowTypeEE@Qt_5 5.7.1
 _ZN8QtCharts11QPolarChartC2EP13QGraphicsItem6QFlagsIN2Qt10WindowTypeEE@Qt_5 5.7.1
 _ZN8QtCharts11QPolarChartD0Ev@Qt_5 5.7.1
 _ZN8QtCharts11QPolarChartD1Ev@Qt_5 5.7.1
 _ZN8QtCharts11QPolarChartD2Ev@Qt_5 5.7.1
 _ZN8QtCharts11XLogYDomain10attachAxisEPNS_13QAbstractAxisE@Qt_5 5.10.1
 _ZN8QtCharts11XLogYDomain10detachAxisEPNS_13QAbstractAxisE@Qt_5 5.10.1
 _ZN8QtCharts11XLogYDomain11qt_metacallEN11QMetaObject4CallEiPPv@Qt_5 5.10.1
 _ZN8QtCharts11XLogYDomain11qt_metacastEPKc@Qt_5 5.10.1
 _ZN8QtCharts11XLogYDomain16staticMetaObjectE@Qt_5 5.10.1
 _ZN8QtCharts11XLogYDomain29handleVerticalAxisBaseChangedEd@Qt_5 5.10.1
 _ZN8QtCharts11XLogYDomain4moveEdd@Qt_5 5.10.1
 _ZN8QtCharts11XLogYDomain6zoomInERK6QRectF@Qt_5 5.10.1
 _ZN8QtCharts11XLogYDomain7zoomOutERK6QRectF@Qt_5 5.10.1
 _ZN8QtCharts11XLogYDomain8setRangeEdddd@Qt_5 5.10.1
 _ZN8QtCharts11XLogYDomainC1EP7QObject@Qt_5 5.10.1
 _ZN8QtCharts11XLogYDomainC2EP7QObject@Qt_5 5.10.1
 _ZN8QtCharts11XLogYDomainD0Ev@Qt_5 5.10.1
 _ZN8QtCharts11XLogYDomainD1Ev@Qt_5 5.10.1
 _ZN8QtCharts11XLogYDomainD2Ev@Qt_5 5.10.1
 _ZN8QtCharts11XYAnimation11updateStateEN18QAbstractAnimation5StateES2_@Qt_5 5.10.1
 _ZN8QtCharts11XYAnimation18updateCurrentValueERK8QVariant@Qt_5 5.10.1
 _ZN8QtCharts11XYAnimation5setupERK7QVectorI7QPointFES5_i@Qt_5 5.10.1
 _ZN8QtCharts11XYAnimationC1EPNS_7XYChartEiR12QEasingCurve@Qt_5 5.10.1
 _ZN8QtCharts11XYAnimationC2EPNS_7XYChartEiR12QEasingCurve@Qt_5 5.10.1
 _ZN8QtCharts11XYAnimationD0Ev@Qt_5 5.10.1
 _ZN8QtCharts11XYAnimationD1Ev@Qt_5 5.10.1
 _ZN8QtCharts11XYAnimationD2Ev@Qt_5 5.10.1
 _ZN8QtCharts12BarAnimation11qt_metacallEN11QMetaObject4CallEiPPv@Qt_5 5.10.1
 _ZN8QtCharts12BarAnimation11qt_metacastEPKc@Qt_5 5.10.1
 _ZN8QtCharts12BarAnimation16staticMetaObjectE@Qt_5 5.10.1
 _ZN8QtCharts12BarAnimation18updateCurrentValueERK8QVariant@Qt_5 5.10.1
 _ZN8QtCharts12BarAnimation5setupERK7QVectorI6QRectFES5_@Qt_5 5.10.1
 _ZN8QtCharts12BarAnimationC1EPNS_20AbstractBarChartItemEiR12QEasingCurve@Qt_5 5.10.1
 _ZN8QtCharts12BarAnimationC2EPNS_20AbstractBarChartItemEiR12QEasingCurve@Qt_5 5.10.1
 _ZN8QtCharts12BarAnimationD0Ev@Qt_5 5.10.1
 _ZN8QtCharts12BarAnimationD1Ev@Qt_5 5.10.1
 _ZN8QtCharts12BarAnimationD2Ev@Qt_5 5.10.1
 _ZN8QtCharts12BarChartItem11qt_metacallEN11QMetaObject4CallEiPPv@Qt_5 5.10.1
 _ZN8QtCharts12BarChartItem11qt_metacastEPKc@Qt_5 5.10.1
 _ZN8QtCharts12BarChartItem12topLeftPointEiiidd@Qt_5 5.10.1
 _ZN8QtCharts12BarChartItem14positionLabelsEv@Qt_5 5.10.1
 _ZN8QtCharts12BarChartItem15calculateLayoutEv@Qt_5 5.10.1
 _ZN8QtCharts12BarChartItem16bottomRightPointEiiidd@Qt_5 5.10.1
 _ZN8QtCharts12BarChartItem16initializeLayoutEiiib@Qt_5 5.10.1
 _ZN8QtCharts12BarChartItem16staticMetaObjectE@Qt_5 5.10.1
 _ZN8QtCharts12BarChartItem27handleLabelsPositionChangedEv@Qt_5 5.10.1
 _ZN8QtCharts12BarChartItemC1EPNS_18QAbstractBarSeriesEP13QGraphicsItem@Qt_5 5.10.1
 _ZN8QtCharts12BarChartItemC2EPNS_18QAbstractBarSeriesEP13QGraphicsItem@Qt_5 5.10.1
 _ZN8QtCharts12ChartDataSet10attachAxisEPNS_15QAbstractSeriesEPNS_13QAbstractAxisE@Qt_5 5.10.1
 _ZN8QtCharts12ChartDataSet10createAxesE6QFlagsINS_13QAbstractAxis8AxisTypeEEN2Qt11OrientationE@Qt_5 5.10.1
 _ZN8QtCharts12ChartDataSet10detachAxisEPNS_15QAbstractSeriesEPNS_13QAbstractAxisE@Qt_5 5.10.1
 _ZN8QtCharts12ChartDataSet10mapToValueERK7QPointFPNS_15QAbstractSeriesE@Qt_5 5.10.1
 _ZN8QtCharts12ChartDataSet10removeAxisEPNS_13QAbstractAxisE@Qt_5 5.10.1
 _ZN8QtCharts12ChartDataSet11axisRemovedEPNS_13QAbstractAxisE@Qt_5 5.10.1
 _ZN8QtCharts12ChartDataSet11qt_metacallEN11QMetaObject4CallEiPPv@Qt_5 5.10.1
 _ZN8QtCharts12ChartDataSet11qt_metacastEPKc@Qt_5 5.10.1
 _ZN8QtCharts12ChartDataSet11seriesAddedEPNS_15QAbstractSeriesE@Qt_5 5.10.1
 _ZN8QtCharts12ChartDataSet12createDomainENS_14AbstractDomain10DomainTypeE@Qt_5 5.10.1
 _ZN8QtCharts12ChartDataSet12removeSeriesEPNS_15QAbstractSeriesE@Qt_5 5.10.1
 _ZN8QtCharts12ChartDataSet12scrollDomainEdd@Qt_5 5.10.1
 _ZN8QtCharts12ChartDataSet12selectDomainE5QListIPNS_13QAbstractAxisEE@Qt_5 5.10.1
 _ZN8QtCharts12ChartDataSet12zoomInDomainERK6QRectF@Qt_5 5.10.1
 _ZN8QtCharts12ChartDataSet13deleteAllAxesEv@Qt_5 5.10.1
 _ZN8QtCharts12ChartDataSet13mapToPositionERK7QPointFPNS_15QAbstractSeriesE@Qt_5 5.10.1
 _ZN8QtCharts12ChartDataSet13seriesRemovedEPNS_15QAbstractSeriesE@Qt_5 5.10.1
 _ZN8QtCharts12ChartDataSet13zoomOutDomainERK6QRectF@Qt_5 5.10.1
 _ZN8QtCharts12ChartDataSet14isZoomedDomainEv@Qt_5 5.10.1
 _ZN8QtCharts12ChartDataSet14reverseChangedEv@Qt_5 5.10.1
 _ZN8QtCharts12ChartDataSet15deleteAllSeriesEv@Qt_5 5.10.1
 _ZN8QtCharts12ChartDataSet15zoomResetDomainEv@Qt_5 5.10.1
 _ZN8QtCharts12ChartDataSet16staticMetaObjectE@Qt_5 5.10.1
 _ZN8QtCharts12ChartDataSet17createDefaultAxesEv@Qt_5 5.10.1
 _ZN8QtCharts12ChartDataSet19findMinMaxForSeriesE5QListIPNS_15QAbstractSeriesEE6QFlagsIN2Qt11OrientationEERdS9_@Qt_5 5.10.1
 _ZN8QtCharts12ChartDataSet7addAxisEPNS_13QAbstractAxisE6QFlagsIN2Qt13AlignmentFlagEE@Qt_5 5.10.1
 _ZN8QtCharts12ChartDataSet9addSeriesEPNS_15QAbstractSeriesE@Qt_5 5.10.1
 _ZN8QtCharts12ChartDataSet9axisAddedEPNS_13QAbstractAxisE@Qt_5 5.10.1
 _ZN8QtCharts12ChartDataSetC1EPNS_6QChartE@Qt_5 5.10.1
 _ZN8QtCharts12ChartDataSetC2EPNS_6QChartE@Qt_5 5.10.1
 _ZN8QtCharts12ChartDataSetD0Ev@Qt_5 5.10.1
 _ZN8QtCharts12ChartDataSetD1Ev@Qt_5 5.10.1
 _ZN8QtCharts12ChartDataSetD2Ev@Qt_5 5.10.1
 _ZN8QtCharts12ChartElement10setDataSetEPNS_12ChartDataSetE@Qt_5 5.10.1
 _ZN8QtCharts12ChartElement12setPresenterEPNS_14ChartPresenterE@Qt_5 5.10.1
 _ZN8QtCharts12ChartElement15setThemeManagerEPNS_17ChartThemeManagerE@Qt_5 5.10.1
 _ZN8QtCharts12ChartElementC1EP13QGraphicsItem@Qt_5 5.10.1
 _ZN8QtCharts12ChartElementC2EP13QGraphicsItem@Qt_5 5.10.1
 _ZN8QtCharts12LegendLayout10invalidateEv@Qt_5 5.10.1
 _ZN8QtCharts12LegendLayout11setGeometryERK6QRectF@Qt_5 5.10.1
 _ZN8QtCharts12LegendLayout15widthLongerThanEPKNS0_17LegendWidthStructES3_@Qt_5 5.10.1
 _ZN8QtCharts12LegendLayout19setAttachedGeometryERK6QRectF@Qt_5 5.10.1
 _ZN8QtCharts12LegendLayout20setDettachedGeometryERK6QRectF@Qt_5 5.10.1
 _ZN8QtCharts12LegendLayout9setOffsetEdd@Qt_5 5.10.1
 _ZN8QtCharts12LegendLayoutC1EPNS_7QLegendE@Qt_5 5.10.1
 _ZN8QtCharts12LegendLayoutC2EPNS_7QLegendE@Qt_5 5.10.1
 _ZN8QtCharts12LegendLayoutD0Ev@Qt_5 5.10.1
 _ZN8QtCharts12LegendLayoutD1Ev@Qt_5 5.10.1
 _ZN8QtCharts12LegendLayoutD2Ev@Qt_5 5.10.1
 _ZN8QtCharts12PieAnimation11qt_metacallEN11QMetaObject4CallEiPPv@Qt_5 5.10.1
 _ZN8QtCharts12PieAnimation11qt_metacastEPKc@Qt_5 5.10.1
 _ZN8QtCharts12PieAnimation11removeSliceEPNS_12PieSliceItemE@Qt_5 5.10.1
 _ZN8QtCharts12PieAnimation11updateValueEPNS_12PieSliceItemERKNS_12PieSliceDataE@Qt_5 5.10.1
 _ZN8QtCharts12PieAnimation16staticMetaObjectE@Qt_5 5.10.1
 _ZN8QtCharts12PieAnimation18updateCurrentValueERK8QVariant@Qt_5 5.10.1
 _ZN8QtCharts12PieAnimation8addSliceEPNS_12PieSliceItemERKNS_12PieSliceDataEb@Qt_5 5.10.1
 _ZN8QtCharts12PieAnimationC1EPNS_12PieChartItemEiR12QEasingCurve@Qt_5 5.10.1
 _ZN8QtCharts12PieAnimationC2EPNS_12PieChartItemEiR12QEasingCurve@Qt_5 5.10.1
 _ZN8QtCharts12PieAnimationD0Ev@Qt_5 5.10.1
 _ZN8QtCharts12PieAnimationD1Ev@Qt_5 5.10.1
 _ZN8QtCharts12PieAnimationD2Ev@Qt_5 5.10.1
 _ZN8QtCharts12PieChartItem11qt_metacallEN11QMetaObject4CallEiPPv@Qt_5 5.10.1
 _ZN8QtCharts12PieChartItem11qt_metacastEPKc@Qt_5 5.10.1
 _ZN8QtCharts12PieChartItem12setAnimationEPNS_12PieAnimationE@Qt_5 5.10.1
 _ZN8QtCharts12PieChartItem12updateLayoutEv@Qt_5 5.10.1
 _ZN8QtCharts12PieChartItem15hoverEnterEventEP24QGraphicsSceneHoverEvent@Qt_5 5.10.1
 _ZN8QtCharts12PieChartItem15hoverLeaveEventEP24QGraphicsSceneHoverEvent@Qt_5 5.10.1
 _ZN8QtCharts12PieChartItem15mousePressEventEP24QGraphicsSceneMouseEvent@Qt_5 5.10.1
 _ZN8QtCharts12PieChartItem16staticMetaObjectE@Qt_5 5.10.1
 _ZN8QtCharts12PieChartItem17handleSlicesAddedE5QListIPNS_9QPieSliceEE@Qt_5 5.10.1
 _ZN8QtCharts12PieChartItem17mouseReleaseEventEP24QGraphicsSceneMouseEvent@Qt_5 5.10.1
 _ZN8QtCharts12PieChartItem18handleSliceChangedEv@Qt_5 5.10.1
 _ZN8QtCharts12PieChartItem19handleDomainUpdatedEv@Qt_5 5.10.1
 _ZN8QtCharts12PieChartItem19handleSlicesRemovedE5QListIPNS_9QPieSliceEE@Qt_5 5.10.1
 _ZN8QtCharts12PieChartItem19updateSliceGeometryEPNS_9QPieSliceE@Qt_5 5.10.1
 _ZN8QtCharts12PieChartItem20handleOpacityChangedEv@Qt_5 5.10.1
 _ZN8QtCharts12PieChartItem21mouseDoubleClickEventEP24QGraphicsSceneMouseEvent@Qt_5 5.10.1
 _ZN8QtCharts12PieChartItem26handleSeriesVisibleChangedEv@Qt_5 5.10.1
 _ZN8QtCharts12PieChartItem7cleanupEv@Qt_5 5.10.1
 _ZN8QtCharts12PieChartItemC1EPNS_10QPieSeriesEP13QGraphicsItem@Qt_5 5.10.1
 _ZN8QtCharts12PieChartItemC2EPNS_10QPieSeriesEP13QGraphicsItem@Qt_5 5.10.1
 _ZN8QtCharts12PieChartItemD0Ev@Qt_5 5.10.1
 _ZN8QtCharts12PieChartItemD1Ev@Qt_5 5.10.1
 _ZN8QtCharts12PieChartItemD2Ev@Qt_5 5.10.1
 _ZN8QtCharts12PieSliceItem11qt_metacallEN11QMetaObject4CallEiPPv@Qt_5 5.10.1
 _ZN8QtCharts12PieSliceItem11qt_metacastEPKc@Qt_5 5.10.1
 _ZN8QtCharts12PieSliceItem11sliceCenterE7QPointFdPNS_9QPieSliceE@Qt_5 5.10.1
 _ZN8QtCharts12PieSliceItem12labelArmPathE7QPointFdddPS1_@Qt_5 5.10.1
 _ZN8QtCharts12PieSliceItem13doubleClickedE6QFlagsIN2Qt11MouseButtonEE@Qt_5 5.10.1
 _ZN8QtCharts12PieSliceItem14updateGeometryEv@Qt_5 5.10.1
 _ZN8QtCharts12PieSliceItem15hoverEnterEventEP24QGraphicsSceneHoverEvent@Qt_5 5.10.1
 _ZN8QtCharts12PieSliceItem15hoverLeaveEventEP24QGraphicsSceneHoverEvent@Qt_5 5.10.1
 _ZN8QtCharts12PieSliceItem15mousePressEventEP24QGraphicsSceneMouseEvent@Qt_5 5.10.1
 _ZN8QtCharts12PieSliceItem16staticMetaObjectE@Qt_5 5.10.1
 _ZN8QtCharts12PieSliceItem17mouseReleaseEventEP24QGraphicsSceneMouseEvent@Qt_5 5.10.1
 _ZN8QtCharts12PieSliceItem21mouseDoubleClickEventEP24QGraphicsSceneMouseEvent@Qt_5 5.10.1
 _ZN8QtCharts12PieSliceItem5paintEP8QPainterPK24QStyleOptionGraphicsItemP7QWidget@Qt_5 5.10.1
 _ZN8QtCharts12PieSliceItem7clickedE6QFlagsIN2Qt11MouseButtonEE@Qt_5 5.10.1
 _ZN8QtCharts12PieSliceItem7hoveredEb@Qt_5 5.10.1
 _ZN8QtCharts12PieSliceItem7pressedE6QFlagsIN2Qt11MouseButtonEE@Qt_5 5.10.1
 _ZN8QtCharts12PieSliceItem8releasedE6QFlagsIN2Qt11MouseButtonEE@Qt_5 5.10.1
 _ZN8QtCharts12PieSliceItem9setLayoutERKNS_12PieSliceDataE@Qt_5 5.10.1
 _ZN8QtCharts12PieSliceItem9slicePathE7QPointFdddPdPS1_@Qt_5 5.10.1
 _ZN8QtCharts12PieSliceItemC1EP13QGraphicsItem@Qt_5 5.10.1
 _ZN8QtCharts12PieSliceItemC2EP13QGraphicsItem@Qt_5 5.10.1
 _ZN8QtCharts12PieSliceItemD0Ev@Qt_5 5.10.1
 _ZN8QtCharts12PieSliceItemD1Ev@Qt_5 5.10.1
 _ZN8QtCharts12PieSliceItemD2Ev@Qt_5 5.10.1
 _ZN8QtCharts12ScrollTicker10timerEventEP11QTimerEvent@Qt_5 5.10.1
 _ZN8QtCharts12ScrollTicker11qt_metacallEN11QMetaObject4CallEiPPv@Qt_5 5.10.1
 _ZN8QtCharts12ScrollTicker11qt_metacastEPKc@Qt_5 5.10.1
 _ZN8QtCharts12ScrollTicker16staticMetaObjectE@Qt_5 5.10.1
 _ZN8QtCharts12ScrollTicker4stopEv@Qt_5 5.10.1
 _ZN8QtCharts12ScrollTicker5startEi@Qt_5 5.10.1
 _ZN8QtCharts12ScrollTickerC1EPNS_8ScrollerEP7QObject@Qt_5 5.10.1
 _ZN8QtCharts12ScrollTickerC2EPNS_8ScrollerEP7QObject@Qt_5 5.10.1
 _ZN8QtCharts12VerticalAxis14updateGeometryEv@Qt_5 5.10.1
 _ZN8QtCharts12VerticalAxis23updateMinorTickGeometryEv@Qt_5 5.10.1
 _ZN8QtCharts12VerticalAxisC1EPNS_13QAbstractAxisEP13QGraphicsItemb@Qt_5 5.10.1
 _ZN8QtCharts12VerticalAxisC2EPNS_13QAbstractAxisEP13QGraphicsItemb@Qt_5 5.10.1
 _ZN8QtCharts12VerticalAxisD0Ev@Qt_5 5.10.1
 _ZN8QtCharts12VerticalAxisD1Ev@Qt_5 5.10.1
 _ZN8QtCharts12VerticalAxisD2Ev@Qt_5 5.10.1
 _ZN8QtCharts13AreaChartItem10updatePathEv@Qt_5 5.10.1
 _ZN8QtCharts13AreaChartItem11qt_metacallEN11QMetaObject4CallEiPPv@Qt_5 5.10.1
 _ZN8QtCharts13AreaChartItem11qt_metacastEPKc@Qt_5 5.10.1
 _ZN8QtCharts13AreaChartItem12setPresenterEPNS_14ChartPresenterE@Qt_5 5.10.1
 _ZN8QtCharts13AreaChartItem13doubleClickedERK7QPointF@Qt_5 5.10.1
 _ZN8QtCharts13AreaChartItem13handleUpdatedEv@Qt_5 5.10.1
 _ZN8QtCharts13AreaChartItem14setLowerSeriesEPNS_11QLineSeriesE@Qt_5 5.10.1
 _ZN8QtCharts13AreaChartItem14setUpperSeriesEPNS_11QLineSeriesE@Qt_5 5.10.1
 _ZN8QtCharts13AreaChartItem15hoverEnterEventEP24QGraphicsSceneHoverEvent@Qt_5 5.10.1
 _ZN8QtCharts13AreaChartItem15hoverLeaveEventEP24QGraphicsSceneHoverEvent@Qt_5 5.10.1
 _ZN8QtCharts13AreaChartItem15mousePressEventEP24QGraphicsSceneMouseEvent@Qt_5 5.10.1
 _ZN8QtCharts13AreaChartItem16staticMetaObjectE@Qt_5 5.10.1
 _ZN8QtCharts13AreaChartItem17mouseReleaseEventEP24QGraphicsSceneMouseEvent@Qt_5 5.10.1
 _ZN8QtCharts13AreaChartItem19fixEdgeSeriesDomainEPNS_13LineChartItemE@Qt_5 5.10.1
 _ZN8QtCharts13AreaChartItem19handleDomainUpdatedEv@Qt_5 5.10.1
 _ZN8QtCharts13AreaChartItem21mouseDoubleClickEventEP24QGraphicsSceneMouseEvent@Qt_5 5.10.1
 _ZN8QtCharts13AreaChartItem5paintEP8QPainterPK24QStyleOptionGraphicsItemP7QWidget@Qt_5 5.10.1
 _ZN8QtCharts13AreaChartItem7clickedERK7QPointF@Qt_5 5.10.1
 _ZN8QtCharts13AreaChartItem7hoveredERK7QPointFb@Qt_5 5.10.1
 _ZN8QtCharts13AreaChartItem7pressedERK7QPointF@Qt_5 5.10.1
 _ZN8QtCharts13AreaChartItem8releasedERK7QPointF@Qt_5 5.10.1
 _ZN8QtCharts13AreaChartItemC1EPNS_11QAreaSeriesEP13QGraphicsItem@Qt_5 5.10.1
 _ZN8QtCharts13AreaChartItemC2EPNS_11QAreaSeriesEP13QGraphicsItem@Qt_5 5.10.1
 _ZN8QtCharts13AreaChartItemD0Ev@Qt_5 5.10.1
 _ZN8QtCharts13AreaChartItemD1Ev@Qt_5 5.10.1
 _ZN8QtCharts13AreaChartItemD2Ev@Qt_5 5.10.1
 _ZN8QtCharts13AxisAnimation16setAnimationTypeENS0_9AnimationE@Qt_5 5.10.1
 _ZN8QtCharts13AxisAnimation17setAnimationPointERK7QPointF@Qt_5 5.10.1
 _ZN8QtCharts13AxisAnimation18updateCurrentValueERK8QVariant@Qt_5 5.10.1
 _ZN8QtCharts13AxisAnimation9setValuesER7QVectorIdES3_@Qt_5 5.10.1
 _ZN8QtCharts13AxisAnimationC1EPNS_16ChartAxisElementEiR12QEasingCurve@Qt_5 5.10.1
 _ZN8QtCharts13AxisAnimationC2EPNS_16ChartAxisElementEiR12QEasingCurve@Qt_5 5.10.1
 _ZN8QtCharts13AxisAnimationD0Ev@Qt_5 5.10.1
 _ZN8QtCharts13AxisAnimationD1Ev@Qt_5 5.10.1
 _ZN8QtCharts13AxisAnimationD2Ev@Qt_5 5.10.1
 _ZN8QtCharts13LineChartItem11qt_metacallEN11QMetaObject4CallEiPPv@Qt_5 5.10.1
 _ZN8QtCharts13LineChartItem11qt_metacastEPKc@Qt_5 5.10.1
 _ZN8QtCharts13LineChartItem13handleUpdatedEv@Qt_5 5.10.1
 _ZN8QtCharts13LineChartItem14updateGeometryEv@Qt_5 5.10.1
 _ZN8QtCharts13LineChartItem15hoverEnterEventEP24QGraphicsSceneHoverEvent@Qt_5 5.10.1
 _ZN8QtCharts13LineChartItem15hoverLeaveEventEP24QGraphicsSceneHoverEvent@Qt_5 5.10.1
 _ZN8QtCharts13LineChartItem15mousePressEventEP24QGraphicsSceneMouseEvent@Qt_5 5.10.1
 _ZN8QtCharts13LineChartItem16staticMetaObjectE@Qt_5 5.10.1
 _ZN8QtCharts13LineChartItem17mouseReleaseEventEP24QGraphicsSceneMouseEvent@Qt_5 5.10.1
 _ZN8QtCharts13LineChartItem21mouseDoubleClickEventEP24QGraphicsSceneMouseEvent@Qt_5 5.10.1
 _ZN8QtCharts13LineChartItem5paintEP8QPainterPK24QStyleOptionGraphicsItemP7QWidget@Qt_5 5.10.1
 _ZN8QtCharts13LineChartItemC1EPNS_11QLineSeriesEP13QGraphicsItem@Qt_5 5.10.1
 _ZN8QtCharts13LineChartItemC2EPNS_11QLineSeriesEP13QGraphicsItem@Qt_5 5.10.1
 _ZN8QtCharts13QAbstractAxis10setLinePenERK4QPen@Qt_5 5.7.1
 _ZN8QtCharts13QAbstractAxis10setReverseEb@Qt_5 5.7.1
 _ZN8QtCharts13QAbstractAxis10setVisibleEb@Qt_5 5.7.1
 _ZN8QtCharts13QAbstractAxis11qt_metacallEN11QMetaObject4CallEiPPv@Qt_5 5.7.1
 _ZN8QtCharts13QAbstractAxis11qt_metacastEPKc@Qt_5 5.7.1
 _ZN8QtCharts13QAbstractAxis12colorChangedE6QColor@Qt_5 5.7.1
 _ZN8QtCharts13QAbstractAxis12setShadesPenERK4QPen@Qt_5 5.7.1
 _ZN8QtCharts13QAbstractAxis12setTitleFontERK5QFont@Qt_5 5.7.1
 _ZN8QtCharts13QAbstractAxis12setTitleTextERK7QString@Qt_5 5.7.1
 _ZN8QtCharts13QAbstractAxis13gridLineColorEv@Qt_5 5.7.1
 _ZN8QtCharts13QAbstractAxis13setLabelsFontERK5QFont@Qt_5 5.7.1
 _ZN8QtCharts13QAbstractAxis13setTitleBrushERK6QBrush@Qt_5 5.7.1
 _ZN8QtCharts13QAbstractAxis14linePenChangedERK4QPen@Qt_5 5.7.1
 _ZN8QtCharts13QAbstractAxis14reverseChangedEb@Qt_5 5.7.1
 _ZN8QtCharts13QAbstractAxis14setGridLinePenERK4QPen@Qt_5 5.7.1
 _ZN8QtCharts13QAbstractAxis14setLabelsAngleEi@Qt_5 5.7.1
 _ZN8QtCharts13QAbstractAxis14setLabelsBrushERK6QBrush@Qt_5 5.7.1
 _ZN8QtCharts13QAbstractAxis14setLabelsColorE6QColor@Qt_5 5.7.1
 _ZN8QtCharts13QAbstractAxis14setLineVisibleEb@Qt_5 5.7.1
 _ZN8QtCharts13QAbstractAxis14setShadesBrushERK6QBrush@Qt_5 5.7.1
 _ZN8QtCharts13QAbstractAxis14setShadesColorE6QColor@Qt_5 5.7.1
 _ZN8QtCharts13QAbstractAxis14visibleChangedEb@Qt_5 5.7.1
 _ZN8QtCharts13QAbstractAxis15setLinePenColorE6QColor@Qt_5 5.7.1
 _ZN8QtCharts13QAbstractAxis15setTitleVisibleEb@Qt_5 5.7.1
 _ZN8QtCharts13QAbstractAxis16setGridLineColorERK6QColor@Qt_5 5.7.1
 _ZN8QtCharts13QAbstractAxis16setLabelsVisibleEb@Qt_5 5.7.1
 _ZN8QtCharts13QAbstractAxis16setShadesVisibleEb@Qt_5 5.7.1
 _ZN8QtCharts13QAbstractAxis16shadesPenChangedERK4QPen@Qt_5 5.7.1
 _ZN8QtCharts13QAbstractAxis16staticMetaObjectE@Qt_5 5.7.1
 _ZN8QtCharts13QAbstractAxis16titleFontChangedERK5QFont@Qt_5 5.7.1
 _ZN8QtCharts13QAbstractAxis16titleTextChangedERK7QString@Qt_5 5.7.1
 _ZN8QtCharts13QAbstractAxis17labelsFontChangedERK5QFont@Qt_5 5.7.1
 _ZN8QtCharts13QAbstractAxis17titleBrushChangedERK6QBrush@Qt_5 5.7.1
 _ZN8QtCharts13QAbstractAxis18gridLinePenChangedERK4QPen@Qt_5 5.7.1
 _ZN8QtCharts13QAbstractAxis18gridVisibleChangedEb@Qt_5 5.7.1
 _ZN8QtCharts13QAbstractAxis18labelsAngleChangedEi@Qt_5 5.7.1
 _ZN8QtCharts13QAbstractAxis18labelsBrushChangedERK6QBrush@Qt_5 5.7.1
 _ZN8QtCharts13QAbstractAxis18labelsColorChangedE6QColor@Qt_5 5.7.1
 _ZN8QtCharts13QAbstractAxis18lineVisibleChangedEb@Qt_5 5.7.1
 _ZN8QtCharts13QAbstractAxis18minorGridLineColorEv@Qt_5 5.7.1
 _ZN8QtCharts13QAbstractAxis18setGridLineVisibleEb@Qt_5 5.7.1
 _ZN8QtCharts13QAbstractAxis18shadesBrushChangedERK6QBrush@Qt_5 5.7.1
 _ZN8QtCharts13QAbstractAxis18shadesColorChangedE6QColor@Qt_5 5.7.1
 _ZN8QtCharts13QAbstractAxis19setMinorGridLinePenERK4QPen@Qt_5 5.7.1
 _ZN8QtCharts13QAbstractAxis19titleVisibleChangedEb@Qt_5 5.7.1
 _ZN8QtCharts13QAbstractAxis20gridLineColorChangedERK6QColor@Qt_5 5.7.1
 _ZN8QtCharts13QAbstractAxis20labelsVisibleChangedEb@Qt_5 5.7.1
 _ZN8QtCharts13QAbstractAxis20setShadesBorderColorE6QColor@Qt_5 5.7.1
 _ZN8QtCharts13QAbstractAxis20shadesVisibleChangedEb@Qt_5 5.7.1
 _ZN8QtCharts13QAbstractAxis21setMinorGridLineColorERK6QColor@Qt_5 5.7.1
 _ZN8QtCharts13QAbstractAxis23minorGridLinePenChangedERK4QPen@Qt_5 5.7.1
 _ZN8QtCharts13QAbstractAxis23minorGridVisibleChangedEb@Qt_5 5.7.1
 _ZN8QtCharts13QAbstractAxis23setMinorGridLineVisibleEb@Qt_5 5.7.1
 _ZN8QtCharts13QAbstractAxis24shadesBorderColorChangedE6QColor@Qt_5 5.7.1
 _ZN8QtCharts13QAbstractAxis25minorGridLineColorChangedERK6QColor@Qt_5 5.7.1
 _ZN8QtCharts13QAbstractAxis4hideEv@Qt_5 5.7.1
 _ZN8QtCharts13QAbstractAxis4showEv@Qt_5 5.7.1
 _ZN8QtCharts13QAbstractAxis6setMaxERK8QVariant@Qt_5 5.7.1
 _ZN8QtCharts13QAbstractAxis6setMinERK8QVariant@Qt_5 5.7.1
 _ZN8QtCharts13QAbstractAxis8setRangeERK8QVariantS3_@Qt_5 5.7.1
 _ZN8QtCharts13QAbstractAxisC1ERNS_20QAbstractAxisPrivateEP7QObject@Qt_5 5.10.1
 _ZN8QtCharts13QAbstractAxisC2ERNS_20QAbstractAxisPrivateEP7QObject@Qt_5 5.10.1
 _ZN8QtCharts13QAbstractAxisD0Ev@Qt_5 5.7.1
 _ZN8QtCharts13QAbstractAxisD1Ev@Qt_5 5.7.1
 _ZN8QtCharts13QAbstractAxisD2Ev@Qt_5 5.7.1
 _ZN8QtCharts13QCategoryAxis11qt_metacallEN11QMetaObject4CallEiPPv@Qt_5 5.7.1
 _ZN8QtCharts13QCategoryAxis11qt_metacastEPKc@Qt_5 5.7.1
 _ZN8QtCharts13QCategoryAxis12replaceLabelERK7QStringS3_@Qt_5 5.7.1
 _ZN8QtCharts13QCategoryAxis13setStartValueEd@Qt_5 5.7.1
 _ZN8QtCharts13QCategoryAxis16categoriesLabelsEv@Qt_5 5.7.1
 _ZN8QtCharts13QCategoryAxis16staticMetaObjectE@Qt_5 5.7.1
 _ZN8QtCharts13QCategoryAxis17categoriesChangedEv@Qt_5 5.7.1
 _ZN8QtCharts13QCategoryAxis17setLabelsPositionENS0_18AxisLabelsPositionE@Qt_5 5.7.1
 _ZN8QtCharts13QCategoryAxis21labelsPositionChangedENS0_18AxisLabelsPositionE@Qt_5 5.7.1
 _ZN8QtCharts13QCategoryAxis6appendERK7QStringd@Qt_5 5.7.1
 _ZN8QtCharts13QCategoryAxis6removeERK7QString@Qt_5 5.7.1
 _ZN8QtCharts13QCategoryAxisC1EP7QObject@Qt_5 5.7.1
 _ZN8QtCharts13QCategoryAxisC1ERNS_20QCategoryAxisPrivateEP7QObject@Qt_5 5.7.1
 _ZN8QtCharts13QCategoryAxisC2EP7QObject@Qt_5 5.7.1
 _ZN8QtCharts13QCategoryAxisC2ERNS_20QCategoryAxisPrivateEP7QObject@Qt_5 5.7.1
 _ZN8QtCharts13QCategoryAxisD0Ev@Qt_5 5.7.1
 _ZN8QtCharts13QCategoryAxisD1Ev@Qt_5 5.7.1
 _ZN8QtCharts13QCategoryAxisD2Ev@Qt_5 5.7.1
 _ZN8QtCharts13QChartPrivate10defaultPenEv@Qt_5 5.10.1
 _ZN8QtCharts13QChartPrivate11defaultFontEv@Qt_5 5.10.1
 _ZN8QtCharts13QChartPrivate12defaultBrushEv@Qt_5 5.10.1
 _ZN8QtCharts13QChartPrivate4initEv@Qt_5 5.10.1
 _ZN8QtCharts13QChartPrivate6scrollEdd@Qt_5 5.10.1
 _ZN8QtCharts13QChartPrivate6zoomInERK6QRectF@Qt_5 5.10.1
 _ZN8QtCharts13QChartPrivate6zoomInEd@Qt_5 5.10.1
 _ZN8QtCharts13QChartPrivate7zoomOutEd@Qt_5 5.10.1
 _ZN8QtCharts13QChartPrivate8isZoomedEv@Qt_5 5.10.1
 _ZN8QtCharts13QChartPrivate9zoomResetEv@Qt_5 5.10.1
 _ZN8QtCharts13QChartPrivateC1EPNS_6QChartENS1_9ChartTypeE@Qt_5 5.10.1
 _ZN8QtCharts13QChartPrivateC2EPNS_6QChartENS1_9ChartTypeE@Qt_5 5.10.1
 _ZN8QtCharts13QChartPrivateD1Ev@Qt_5 5.10.1
 _ZN8QtCharts13QChartPrivateD2Ev@Qt_5 5.10.1
 _ZN8QtCharts13QDateTimeAxis10maxChangedE9QDateTime@Qt_5 5.7.1
 _ZN8QtCharts13QDateTimeAxis10minChangedE9QDateTime@Qt_5 5.7.1
 _ZN8QtCharts13QDateTimeAxis11qt_metacallEN11QMetaObject4CallEiPPv@Qt_5 5.7.1
 _ZN8QtCharts13QDateTimeAxis11qt_metacastEPKc@Qt_5 5.7.1
 _ZN8QtCharts13QDateTimeAxis12rangeChangedE9QDateTimeS1_@Qt_5 5.7.1
 _ZN8QtCharts13QDateTimeAxis12setTickCountEi@Qt_5 5.7.1
 _ZN8QtCharts13QDateTimeAxis13formatChangedE7QString@Qt_5 5.7.1
 _ZN8QtCharts13QDateTimeAxis16staticMetaObjectE@Qt_5 5.7.1
 _ZN8QtCharts13QDateTimeAxis16tickCountChangedEi@Qt_5 5.7.1
 _ZN8QtCharts13QDateTimeAxis6setMaxE9QDateTime@Qt_5 5.7.1
 _ZN8QtCharts13QDateTimeAxis6setMinE9QDateTime@Qt_5 5.7.1
 _ZN8QtCharts13QDateTimeAxis8setRangeE9QDateTimeS1_@Qt_5 5.7.1
 _ZN8QtCharts13QDateTimeAxis9setFormatE7QString@Qt_5 5.7.1
 _ZN8QtCharts13QDateTimeAxisC1EP7QObject@Qt_5 5.7.1
 _ZN8QtCharts13QDateTimeAxisC1ERNS_20QDateTimeAxisPrivateEP7QObject@Qt_5 5.7.1
 _ZN8QtCharts13QDateTimeAxisC2EP7QObject@Qt_5 5.7.1
 _ZN8QtCharts13QDateTimeAxisC2ERNS_20QDateTimeAxisPrivateEP7QObject@Qt_5 5.7.1
 _ZN8QtCharts13QDateTimeAxisD0Ev@Qt_5 5.7.1
 _ZN8QtCharts13QDateTimeAxisD1Ev@Qt_5 5.7.1
 _ZN8QtCharts13QDateTimeAxisD2Ev@Qt_5 5.7.1
 _ZN8QtCharts13QLegendMarker10penChangedEv@Qt_5 5.7.1
 _ZN8QtCharts13QLegendMarker10setVisibleEb@Qt_5 5.7.1
 _ZN8QtCharts13QLegendMarker11fontChangedEv@Qt_5 5.7.1
 _ZN8QtCharts13QLegendMarker11qt_metacallEN11QMetaObject4CallEiPPv@Qt_5 5.7.1
 _ZN8QtCharts13QLegendMarker11qt_metacastEPKc@Qt_5 5.7.1
 _ZN8QtCharts13QLegendMarker12brushChangedEv@Qt_5 5.7.1
 _ZN8QtCharts13QLegendMarker12labelChangedEv@Qt_5 5.7.1
 _ZN8QtCharts13QLegendMarker12shapeChangedEv@Qt_5 5.9.0~rc
 _ZN8QtCharts13QLegendMarker13setLabelBrushERK6QBrush@Qt_5 5.7.1
 _ZN8QtCharts13QLegendMarker14visibleChangedEv@Qt_5 5.7.1
 _ZN8QtCharts13QLegendMarker16staticMetaObjectE@Qt_5 5.7.1
 _ZN8QtCharts13QLegendMarker17labelBrushChangedEv@Qt_5 5.7.1
 _ZN8QtCharts13QLegendMarker6setPenERK4QPen@Qt_5 5.7.1
 _ZN8QtCharts13QLegendMarker7clickedEv@Qt_5 5.7.1
 _ZN8QtCharts13QLegendMarker7hoveredEb@Qt_5 5.7.1
 _ZN8QtCharts13QLegendMarker7setFontERK5QFont@Qt_5 5.7.1
 _ZN8QtCharts13QLegendMarker8setBrushERK6QBrush@Qt_5 5.7.1
 _ZN8QtCharts13QLegendMarker8setLabelERK7QString@Qt_5 5.7.1
 _ZN8QtCharts13QLegendMarker8setShapeENS_7QLegend11MarkerShapeE@Qt_5 5.9.0~rc
 _ZN8QtCharts13QLegendMarkerC1ERNS_20QLegendMarkerPrivateEP7QObject@Qt_5 5.7.1
 _ZN8QtCharts13QLegendMarkerC2ERNS_20QLegendMarkerPrivateEP7QObject@Qt_5 5.7.1
 _ZN8QtCharts13QLegendMarkerD0Ev@Qt_5 5.7.1
 _ZN8QtCharts13QLegendMarkerD1Ev@Qt_5 5.7.1
 _ZN8QtCharts13QLegendMarkerD2Ev@Qt_5 5.7.1
 _ZN8QtCharts13QLogValueAxis10maxChangedEd@Qt_5 5.7.1
 _ZN8QtCharts13QLogValueAxis10minChangedEd@Qt_5 5.7.1
 _ZN8QtCharts13QLogValueAxis11baseChangedEd@Qt_5 5.7.1
 _ZN8QtCharts13QLogValueAxis11qt_metacallEN11QMetaObject4CallEiPPv@Qt_5 5.7.1
 _ZN8QtCharts13QLogValueAxis11qt_metacastEPKc@Qt_5 5.7.1
 _ZN8QtCharts13QLogValueAxis12rangeChangedEdd@Qt_5 5.7.1
 _ZN8QtCharts13QLogValueAxis14setLabelFormatERK7QString@Qt_5 5.7.1
 _ZN8QtCharts13QLogValueAxis16staticMetaObjectE@Qt_5 5.7.1
 _ZN8QtCharts13QLogValueAxis16tickCountChangedEi@Qt_5 5.9.0~rc
 _ZN8QtCharts13QLogValueAxis17setMinorTickCountEi@Qt_5 5.9.0~rc
 _ZN8QtCharts13QLogValueAxis18labelFormatChangedERK7QString@Qt_5 5.7.1
 _ZN8QtCharts13QLogValueAxis21minorTickCountChangedEi@Qt_5 5.9.0~rc
 _ZN8QtCharts13QLogValueAxis6setMaxEd@Qt_5 5.7.1
 _ZN8QtCharts13QLogValueAxis6setMinEd@Qt_5 5.7.1
 _ZN8QtCharts13QLogValueAxis7setBaseEd@Qt_5 5.7.1
 _ZN8QtCharts13QLogValueAxis8setRangeEdd@Qt_5 5.7.1
 _ZN8QtCharts13QLogValueAxisC1EP7QObject@Qt_5 5.7.1
 _ZN8QtCharts13QLogValueAxisC1ERNS_20QLogValueAxisPrivateEP7QObject@Qt_5 5.7.1
 _ZN8QtCharts13QLogValueAxisC2EP7QObject@Qt_5 5.7.1
 _ZN8QtCharts13QLogValueAxisC2ERNS_20QLogValueAxisPrivateEP7QObject@Qt_5 5.7.1
 _ZN8QtCharts13QLogValueAxisD0Ev@Qt_5 5.7.1
 _ZN8QtCharts13QLogValueAxisD1Ev@Qt_5 5.7.1
 _ZN8QtCharts13QLogValueAxisD2Ev@Qt_5 5.7.1
 _ZN8QtCharts13QSplineSeries11qt_metacallEN11QMetaObject4CallEiPPv@Qt_5 5.7.1
 _ZN8QtCharts13QSplineSeries11qt_metacastEPKc@Qt_5 5.7.1
 _ZN8QtCharts13QSplineSeries16staticMetaObjectE@Qt_5 5.7.1
 _ZN8QtCharts13QSplineSeriesC1EP7QObject@Qt_5 5.7.1
 _ZN8QtCharts13QSplineSeriesC2EP7QObject@Qt_5 5.7.1
 _ZN8QtCharts13QSplineSeriesD0Ev@Qt_5 5.7.1
 _ZN8QtCharts13QSplineSeriesD1Ev@Qt_5 5.7.1
 _ZN8QtCharts13QSplineSeriesD2Ev@Qt_5 5.7.1
 _ZN8QtCharts13XYPolarDomain11qt_metacallEN11QMetaObject4CallEiPPv@Qt_5 5.10.1
 _ZN8QtCharts13XYPolarDomain11qt_metacastEPKc@Qt_5 5.10.1
 _ZN8QtCharts13XYPolarDomain16staticMetaObjectE@Qt_5 5.10.1
 _ZN8QtCharts13XYPolarDomain4moveEdd@Qt_5 5.10.1
 _ZN8QtCharts13XYPolarDomain6zoomInERK6QRectF@Qt_5 5.10.1
 _ZN8QtCharts13XYPolarDomain7zoomOutERK6QRectF@Qt_5 5.10.1
 _ZN8QtCharts13XYPolarDomain8setRangeEdddd@Qt_5 5.10.1
 _ZN8QtCharts13XYPolarDomainC1EP7QObject@Qt_5 5.10.1
 _ZN8QtCharts13XYPolarDomainC2EP7QObject@Qt_5 5.10.1
 _ZN8QtCharts13XYPolarDomainD0Ev@Qt_5 5.10.1
 _ZN8QtCharts13XYPolarDomainD1Ev@Qt_5 5.10.1
 _ZN8QtCharts13XYPolarDomainD2Ev@Qt_5 5.10.1
 _ZN8QtCharts14AbstractDomain10attachAxisEPNS_13QAbstractAxisE@Qt_5 5.10.1
 _ZN8QtCharts14AbstractDomain10detachAxisEPNS_13QAbstractAxisE@Qt_5 5.10.1
 _ZN8QtCharts14AbstractDomain10niceNumberEdb@Qt_5 5.10.1
 _ZN8QtCharts14AbstractDomain11fixZoomRectERK6QRectF@Qt_5 5.10.1
 _ZN8QtCharts14AbstractDomain11qt_metacallEN11QMetaObject4CallEiPPv@Qt_5 5.10.1
 _ZN8QtCharts14AbstractDomain11qt_metacastEPKc@Qt_5 5.10.1
 _ZN8QtCharts14AbstractDomain14storeZoomResetEv@Qt_5 5.10.1
 _ZN8QtCharts14AbstractDomain16looseNiceNumbersERdS1_Ri@Qt_5 5.10.1
 _ZN8QtCharts14AbstractDomain16staticMetaObjectE@Qt_5 5.10.1
 _ZN8QtCharts14AbstractDomain17blockRangeSignalsEb@Qt_5 5.10.1
 _ZN8QtCharts14AbstractDomain20rangeVerticalChangedEdd@Qt_5 5.10.1
 _ZN8QtCharts14AbstractDomain21adjustLogDomainRangesERdS1_@Qt_5 5.10.1
 _ZN8QtCharts14AbstractDomain21handleReverseXChangedEb@Qt_5 5.10.1
 _ZN8QtCharts14AbstractDomain21handleReverseYChangedEb@Qt_5 5.10.1
 _ZN8QtCharts14AbstractDomain22rangeHorizontalChangedEdd@Qt_5 5.10.1
 _ZN8QtCharts14AbstractDomain30handleVerticalAxisRangeChangedEdd@Qt_5 5.10.1
 _ZN8QtCharts14AbstractDomain32handleHorizontalAxisRangeChangedEdd@Qt_5 5.10.1
 _ZN8QtCharts14AbstractDomain7setMaxXEd@Qt_5 5.10.1
 _ZN8QtCharts14AbstractDomain7setMaxYEd@Qt_5 5.10.1
 _ZN8QtCharts14AbstractDomain7setMinXEd@Qt_5 5.10.1
 _ZN8QtCharts14AbstractDomain7setMinYEd@Qt_5 5.10.1
 _ZN8QtCharts14AbstractDomain7setSizeERK6QSizeF@Qt_5 5.10.1
 _ZN8QtCharts14AbstractDomain7updatedEv@Qt_5 5.10.1
 _ZN8QtCharts14AbstractDomain9setRangeXEdd@Qt_5 5.10.1
 _ZN8QtCharts14AbstractDomain9setRangeYEdd@Qt_5 5.10.1
 _ZN8QtCharts14AbstractDomain9zoomResetEv@Qt_5 5.10.1
 _ZN8QtCharts14AbstractDomainC1EP7QObject@Qt_5 5.10.1
 _ZN8QtCharts14AbstractDomainC2EP7QObject@Qt_5 5.10.1
 _ZN8QtCharts14AbstractDomainD0Ev@Qt_5 5.10.1
 _ZN8QtCharts14AbstractDomainD1Ev@Qt_5 5.10.1
 _ZN8QtCharts14AbstractDomainD2Ev@Qt_5 5.10.1
 _ZN8QtCharts14ChartAnimation11qt_metacallEN11QMetaObject4CallEiPPv@Qt_5 5.10.1
 _ZN8QtCharts14ChartAnimation11qt_metacastEPKc@Qt_5 5.10.1
 _ZN8QtCharts14ChartAnimation16staticMetaObjectE@Qt_5 5.10.1
 _ZN8QtCharts14ChartAnimation19startChartAnimationEv@Qt_5 5.10.1
 _ZN8QtCharts14ChartAnimation19stopAndDestroyLaterEv@Qt_5 5.10.1
 _ZN8QtCharts14ChartAnimationC1EP7QObject@Qt_5 5.10.1
 _ZN8QtCharts14ChartAnimationC2EP7QObject@Qt_5 5.10.1
 _ZN8QtCharts14ChartPresenter10setVisibleEb@Qt_5 5.10.1
 _ZN8QtCharts14ChartPresenter11qt_metacallEN11QMetaObject4CallEiPPv@Qt_5 5.10.1
 _ZN8QtCharts14ChartPresenter11qt_metacastEPKc@Qt_5 5.10.1
 _ZN8QtCharts14ChartPresenter11setGeometryE6QRectF@Qt_5 5.10.1
 _ZN8QtCharts14ChartPresenter12setTitleFontERK5QFont@Qt_5 5.10.1
 _ZN8QtCharts14ChartPresenter12titleElementEv@Qt_5 5.10.1
 _ZN8QtCharts14ChartPresenter13setTitleBrushERK6QBrush@Qt_5 5.10.1
 _ZN8QtCharts14ChartPresenter13truncatedTextERK5QFontRK7QStringdddR6QRectF@Qt_5 5.10.1
 _ZN8QtCharts14ChartPresenter14numberToStringEdci@Qt_5 5.10.1
 _ZN8QtCharts14ChartPresenter14numberToStringEi@Qt_5 5.10.1
 _ZN8QtCharts14ChartPresenter14startAnimationEPNS_14ChartAnimationE@Qt_5 5.10.1
 _ZN8QtCharts14ChartPresenter14updateGLWidgetEv@Qt_5 5.10.1
 _ZN8QtCharts14ChartPresenter15createTitleItemEv@Qt_5 5.10.1
 _ZN8QtCharts14ChartPresenter15handleAxisAddedEPNS_13QAbstractAxisE@Qt_5 5.10.1
 _ZN8QtCharts14ChartPresenter15plotAreaChangedERK6QRectF@Qt_5 5.10.1
 _ZN8QtCharts14ChartPresenter15plotAreaElementEv@Qt_5 5.10.1
 _ZN8QtCharts14ChartPresenter16setBackgroundPenERK4QPen@Qt_5 5.10.1
 _ZN8QtCharts14ChartPresenter16staticMetaObjectE@Qt_5 5.10.1
 _ZN8QtCharts14ChartPresenter16textBoundingRectERK5QFontRK7QStringd@Qt_5 5.10.1
 _ZN8QtCharts14ChartPresenter17backgroundElementEv@Qt_5 5.10.1
 _ZN8QtCharts14ChartPresenter17handleAxisRemovedEPNS_13QAbstractAxisE@Qt_5 5.10.1
 _ZN8QtCharts14ChartPresenter17handleSeriesAddedEPNS_15QAbstractSeriesE@Qt_5 5.10.1
 _ZN8QtCharts14ChartPresenter18setBackgroundBrushERK6QBrush@Qt_5 5.10.1
 _ZN8QtCharts14ChartPresenter18setLocalizeNumbersEb@Qt_5 5.10.1
 _ZN8QtCharts14ChartPresenter19handleSeriesRemovedEPNS_15QAbstractSeriesE@Qt_5 5.10.1
 _ZN8QtCharts14ChartPresenter19setAnimationOptionsE6QFlagsINS_6QChart15AnimationOptionEE@Qt_5 5.10.1
 _ZN8QtCharts14ChartPresenter20createBackgroundItemEv@Qt_5 5.10.1
 _ZN8QtCharts14ChartPresenter20setAnimationDurationEi@Qt_5 5.10.1
 _ZN8QtCharts14ChartPresenter20setBackgroundVisibleEb@Qt_5 5.10.1
 _ZN8QtCharts14ChartPresenter22setBackgroundRoundnessEd@Qt_5 5.10.1
 _ZN8QtCharts14ChartPresenter23setAnimationEasingCurveERK12QEasingCurve@Qt_5 5.10.1
 _ZN8QtCharts14ChartPresenter24setPlotAreaBackgroundPenERK4QPen@Qt_5 5.10.1
 _ZN8QtCharts14ChartPresenter26setPlotAreaBackgroundBrushERK6QBrush@Qt_5 5.10.1
 _ZN8QtCharts14ChartPresenter28createPlotAreaBackgroundItemEv@Qt_5 5.10.1
 _ZN8QtCharts14ChartPresenter28setPlotAreaBackgroundVisibleEb@Qt_5 5.10.1
 _ZN8QtCharts14ChartPresenter30setBackgroundDropShadowEnabledEb@Qt_5 5.10.1
 _ZN8QtCharts14ChartPresenter6layoutEv@Qt_5 5.10.1
 _ZN8QtCharts14ChartPresenter6legendEv@Qt_5 5.10.1
 _ZN8QtCharts14ChartPresenter8setStateENS0_5StateE7QPointF@Qt_5 5.10.1
 _ZN8QtCharts14ChartPresenter8setTitleERK7QString@Qt_5 5.10.1
 _ZN8QtCharts14ChartPresenter9setLocaleERK7QLocale@Qt_5 5.10.1
 _ZN8QtCharts14ChartPresenterC1EPNS_6QChartENS1_9ChartTypeE@Qt_5 5.10.1
 _ZN8QtCharts14ChartPresenterC2EPNS_6QChartENS1_9ChartTypeE@Qt_5 5.10.1
 _ZN8QtCharts14ChartPresenterD0Ev@Qt_5 5.10.1
 _ZN8QtCharts14ChartPresenterD1Ev@Qt_5 5.10.1
 _ZN8QtCharts14ChartPresenterD2Ev@Qt_5 5.10.1
 _ZN8QtCharts14HorizontalAxis14updateGeometryEv@Qt_5 5.10.1
 _ZN8QtCharts14HorizontalAxis23updateMinorTickGeometryEv@Qt_5 5.10.1
 _ZN8QtCharts14HorizontalAxisC1EPNS_13QAbstractAxisEP13QGraphicsItemb@Qt_5 5.10.1
 _ZN8QtCharts14HorizontalAxisC2EPNS_13QAbstractAxisEP13QGraphicsItemb@Qt_5 5.10.1
 _ZN8QtCharts14HorizontalAxisD0Ev@Qt_5 5.10.1
 _ZN8QtCharts14HorizontalAxisD1Ev@Qt_5 5.10.1
 _ZN8QtCharts14HorizontalAxisD2Ev@Qt_5 5.10.1
 _ZN8QtCharts14LegendScroller11qt_metacallEN11QMetaObject4CallEiPPv@Qt_5 5.10.1
 _ZN8QtCharts14LegendScroller11qt_metacastEPKc@Qt_5 5.10.1
 _ZN8QtCharts14LegendScroller14mouseMoveEventEP24QGraphicsSceneMouseEvent@Qt_5 5.10.1
 _ZN8QtCharts14LegendScroller15mousePressEventEP24QGraphicsSceneMouseEvent@Qt_5 5.10.1
 _ZN8QtCharts14LegendScroller16staticMetaObjectE@Qt_5 5.10.1
 _ZN8QtCharts14LegendScroller17mouseReleaseEventEP24QGraphicsSceneMouseEvent@Qt_5 5.10.1
 _ZN8QtCharts14LegendScroller9setOffsetERK7QPointF@Qt_5 5.10.1
 _ZN8QtCharts14LegendScrollerC1EPNS_6QChartE@Qt_5 5.10.1
 _ZN8QtCharts14LegendScrollerC2EPNS_6QChartE@Qt_5 5.10.1
 _ZN8QtCharts14LogXLogYDomain10attachAxisEPNS_13QAbstractAxisE@Qt_5 5.10.1
 _ZN8QtCharts14LogXLogYDomain10detachAxisEPNS_13QAbstractAxisE@Qt_5 5.10.1
 _ZN8QtCharts14LogXLogYDomain11qt_metacallEN11QMetaObject4CallEiPPv@Qt_5 5.10.1
 _ZN8QtCharts14LogXLogYDomain11qt_metacastEPKc@Qt_5 5.10.1
 _ZN8QtCharts14LogXLogYDomain16staticMetaObjectE@Qt_5 5.10.1
 _ZN8QtCharts14LogXLogYDomain29handleVerticalAxisBaseChangedEd@Qt_5 5.10.1
 _ZN8QtCharts14LogXLogYDomain31handleHorizontalAxisBaseChangedEd@Qt_5 5.10.1
 _ZN8QtCharts14LogXLogYDomain4moveEdd@Qt_5 5.10.1
 _ZN8QtCharts14LogXLogYDomain6zoomInERK6QRectF@Qt_5 5.10.1
 _ZN8QtCharts14LogXLogYDomain7zoomOutERK6QRectF@Qt_5 5.10.1
 _ZN8QtCharts14LogXLogYDomain8setRangeEdddd@Qt_5 5.10.1
 _ZN8QtCharts14LogXLogYDomainC1EP7QObject@Qt_5 5.10.1
 _ZN8QtCharts14LogXLogYDomainC2EP7QObject@Qt_5 5.10.1
 _ZN8QtCharts14LogXLogYDomainD0Ev@Qt_5 5.10.1
 _ZN8QtCharts14LogXLogYDomainD1Ev@Qt_5 5.10.1
 _ZN8QtCharts14LogXLogYDomainD2Ev@Qt_5 5.10.1
 _ZN8QtCharts14PolarChartAxis11deleteItemsEi@Qt_5 5.10.1
 _ZN8QtCharts14PolarChartAxis11qt_metacallEN11QMetaObject4CallEiPPv@Qt_5 5.10.1
 _ZN8QtCharts14PolarChartAxis11qt_metacastEPKc@Qt_5 5.10.1
 _ZN8QtCharts14PolarChartAxis11setGeometryERK6QRectFS3_@Qt_5 5.10.1
 _ZN8QtCharts14PolarChartAxis12updateLayoutER7QVectorIdE@Qt_5 5.10.1
 _ZN8QtCharts14PolarChartAxis16staticMetaObjectE@Qt_5 5.10.1
 _ZN8QtCharts14PolarChartAxis22handleShadesPenChangedERK4QPen@Qt_5 5.10.1
 _ZN8QtCharts14PolarChartAxis24handleShadesBrushChangedERK6QBrush@Qt_5 5.10.1
 _ZN8QtCharts14PolarChartAxis7isEmptyEv@Qt_5 5.10.1
 _ZN8QtCharts14PolarChartAxisC1EPNS_13QAbstractAxisEP13QGraphicsItemb@Qt_5 5.10.1
 _ZN8QtCharts14PolarChartAxisC2EPNS_13QAbstractAxisEP13QGraphicsItemb@Qt_5 5.10.1
 _ZN8QtCharts14PolarChartAxisD0Ev@Qt_5 5.10.1
 _ZN8QtCharts14PolarChartAxisD1Ev@Qt_5 5.10.1
 _ZN8QtCharts14PolarChartAxisD2Ev@Qt_5 5.10.1
 _ZN8QtCharts14QBarSetPrivate10valueAddedEii@Qt_5 5.10.1
 _ZN8QtCharts14QBarSetPrivate11qt_metacallEN11QMetaObject4CallEiPPv@Qt_5 5.10.1
 _ZN8QtCharts14QBarSetPrivate11qt_metacastEPKc@Qt_5 5.10.1
 _ZN8QtCharts14QBarSetPrivate11updatedBarsEv@Qt_5 5.10.1
 _ZN8QtCharts14QBarSetPrivate12valueChangedEi@Qt_5 5.10.1
 _ZN8QtCharts14QBarSetPrivate12valueRemovedEii@Qt_5 5.10.1
 _ZN8QtCharts14QBarSetPrivate16staticMetaObjectE@Qt_5 5.10.1
 _ZN8QtCharts14QBarSetPrivate3posEi@Qt_5 5.10.1
 _ZN8QtCharts14QBarSetPrivate5valueEi@Qt_5 5.10.1
 _ZN8QtCharts14QBarSetPrivate6appendE5QListI7QPointFE@Qt_5 5.10.1
 _ZN8QtCharts14QBarSetPrivate6appendE5QListIdE@Qt_5 5.10.1
 _ZN8QtCharts14QBarSetPrivate6appendE7QPointF@Qt_5 5.10.1
 _ZN8QtCharts14QBarSetPrivate6insertEi7QPointF@Qt_5 5.10.1
 _ZN8QtCharts14QBarSetPrivate6insertEid@Qt_5 5.10.1
 _ZN8QtCharts14QBarSetPrivate6removeEii@Qt_5 5.10.1
 _ZN8QtCharts14QBarSetPrivate7replaceEid@Qt_5 5.10.1
 _ZN8QtCharts14QBarSetPrivateC1E7QStringPNS_7QBarSetE@Qt_5 5.10.1
 _ZN8QtCharts14QBarSetPrivateC2E7QStringPNS_7QBarSetE@Qt_5 5.10.1
 _ZN8QtCharts14QBarSetPrivateD0Ev@Qt_5 5.10.1
 _ZN8QtCharts14QBarSetPrivateD1Ev@Qt_5 5.10.1
 _ZN8QtCharts14QBarSetPrivateD2Ev@Qt_5 5.10.1
 _ZN8QtCharts14QBoxPlotSeries10penChangedEv@Qt_5 5.7.1
 _ZN8QtCharts14QBoxPlotSeries11qt_metacallEN11QMetaObject4CallEiPPv@Qt_5 5.7.1
 _ZN8QtCharts14QBoxPlotSeries11qt_metacastEPKc@Qt_5 5.7.1
 _ZN8QtCharts14QBoxPlotSeries11setBoxWidthEd@Qt_5 5.7.1
 _ZN8QtCharts14QBoxPlotSeries12boxsetsAddedE5QListIPNS_7QBoxSetEE@Qt_5 5.7.1
 _ZN8QtCharts14QBoxPlotSeries12brushChangedEv@Qt_5 5.7.1
 _ZN8QtCharts14QBoxPlotSeries12countChangedEv@Qt_5 5.7.1
 _ZN8QtCharts14QBoxPlotSeries13doubleClickedEPNS_7QBoxSetE@Qt_5 5.7.1
 _ZN8QtCharts14QBoxPlotSeries14boxsetsRemovedE5QListIPNS_7QBoxSetEE@Qt_5 5.7.1
 _ZN8QtCharts14QBoxPlotSeries15boxWidthChangedEv@Qt_5 5.7.1
 _ZN8QtCharts14QBoxPlotSeries16staticMetaObjectE@Qt_5 5.7.1
 _ZN8QtCharts14QBoxPlotSeries17boxOutlineVisibleEv@Qt_5 5.7.1
 _ZN8QtCharts14QBoxPlotSeries20setBoxOutlineVisibleEb@Qt_5 5.7.1
 _ZN8QtCharts14QBoxPlotSeries27boxOutlineVisibilityChangedEv@Qt_5 5.7.1
 _ZN8QtCharts14QBoxPlotSeries4takeEPNS_7QBoxSetE@Qt_5 5.7.1
 _ZN8QtCharts14QBoxPlotSeries5clearEv@Qt_5 5.7.1
 _ZN8QtCharts14QBoxPlotSeries6appendE5QListIPNS_7QBoxSetEE@Qt_5 5.7.1
 _ZN8QtCharts14QBoxPlotSeries6appendEPNS_7QBoxSetE@Qt_5 5.7.1
 _ZN8QtCharts14QBoxPlotSeries6insertEiPNS_7QBoxSetE@Qt_5 5.7.1
 _ZN8QtCharts14QBoxPlotSeries6removeEPNS_7QBoxSetE@Qt_5 5.7.1
 _ZN8QtCharts14QBoxPlotSeries6setPenERK4QPen@Qt_5 5.7.1
 _ZN8QtCharts14QBoxPlotSeries7clickedEPNS_7QBoxSetE@Qt_5 5.7.1
 _ZN8QtCharts14QBoxPlotSeries7hoveredEbPNS_7QBoxSetE@Qt_5 5.7.1
 _ZN8QtCharts14QBoxPlotSeries7pressedEPNS_7QBoxSetE@Qt_5 5.7.1
 _ZN8QtCharts14QBoxPlotSeries8boxWidthEv@Qt_5 5.7.1
 _ZN8QtCharts14QBoxPlotSeries8releasedEPNS_7QBoxSetE@Qt_5 5.7.1
 _ZN8QtCharts14QBoxPlotSeries8setBrushERK6QBrush@Qt_5 5.7.1
 _ZN8QtCharts14QBoxPlotSeriesC1EP7QObject@Qt_5 5.7.1
 _ZN8QtCharts14QBoxPlotSeriesC2EP7QObject@Qt_5 5.7.1
 _ZN8QtCharts14QBoxPlotSeriesD0Ev@Qt_5 5.7.1
 _ZN8QtCharts14QBoxPlotSeriesD1Ev@Qt_5 5.7.1
 _ZN8QtCharts14QBoxPlotSeriesD2Ev@Qt_5 5.7.1
 _ZN8QtCharts14QBoxSetPrivate10updatedBoxEv@Qt_5 5.10.1
 _ZN8QtCharts14QBoxSetPrivate11qt_metacallEN11QMetaObject4CallEiPPv@Qt_5 5.10.1
 _ZN8QtCharts14QBoxSetPrivate11qt_metacastEPKc@Qt_5 5.10.1
 _ZN8QtCharts14QBoxSetPrivate13updatedLayoutEv@Qt_5 5.10.1
 _ZN8QtCharts14QBoxSetPrivate15restructuredBoxEv@Qt_5 5.10.1
 _ZN8QtCharts14QBoxSetPrivate16staticMetaObjectE@Qt_5 5.10.1
 _ZN8QtCharts14QBoxSetPrivate5clearEv@Qt_5 5.10.1
 _ZN8QtCharts14QBoxSetPrivate5valueEi@Qt_5 5.10.1
 _ZN8QtCharts14QBoxSetPrivate6appendE5QListIdE@Qt_5 5.10.1
 _ZN8QtCharts14QBoxSetPrivate6appendEd@Qt_5 5.10.1
 _ZN8QtCharts14QBoxSetPrivate8setValueEid@Qt_5 5.10.1
 _ZN8QtCharts14QBoxSetPrivateC1E7QStringPNS_7QBoxSetE@Qt_5 5.10.1
 _ZN8QtCharts14QBoxSetPrivateC2E7QStringPNS_7QBoxSetE@Qt_5 5.10.1
 _ZN8QtCharts14QBoxSetPrivateD0Ev@Qt_5 5.10.1
 _ZN8QtCharts14QBoxSetPrivateD1Ev@Qt_5 5.10.1
 _ZN8QtCharts14QBoxSetPrivateD2Ev@Qt_5 5.10.1
 _ZN8QtCharts14QLegendPrivate10addMarkersE5QListIPNS_13QLegendMarkerEE@Qt_5 5.10.1
 _ZN8QtCharts14QLegendPrivate11qt_metacallEN11QMetaObject4CallEiPPv@Qt_5 5.10.1
 _ZN8QtCharts14QLegendPrivate11qt_metacastEPKc@Qt_5 5.10.1
 _ZN8QtCharts14QLegendPrivate13relatedObjectEPKNS_13QLegendMarkerE@Qt_5 5.11.1
 _ZN8QtCharts14QLegendPrivate13removeMarkersE5QListIPNS_13QLegendMarkerEE@Qt_5 5.10.1
 _ZN8QtCharts14QLegendPrivate14decorateMarkerEPNS_13QLegendMarkerE@Qt_5 5.11.1
 _ZN8QtCharts14QLegendPrivate14updateToolTipsEv@Qt_5 5.10.1
 _ZN8QtCharts14QLegendPrivate15decorateMarkersE5QListIPNS_13QLegendMarkerEE@Qt_5 5.10.1
 _ZN8QtCharts14QLegendPrivate16staticMetaObjectE@Qt_5 5.10.1
 _ZN8QtCharts14QLegendPrivate17handleSeriesAddedEPNS_15QAbstractSeriesE@Qt_5 5.10.1
 _ZN8QtCharts14QLegendPrivate18handleCountChangedEv@Qt_5 5.10.1
 _ZN8QtCharts14QLegendPrivate18insertMarkerHelperEPNS_13QLegendMarkerE@Qt_5 5.11.1
 _ZN8QtCharts14QLegendPrivate18removeMarkerHelperEPNS_13QLegendMarkerE@Qt_5 5.11.1
 _ZN8QtCharts14QLegendPrivate19handleSeriesRemovedEPNS_15QAbstractSeriesE@Qt_5 5.10.1
 _ZN8QtCharts14QLegendPrivate26handleSeriesVisibleChangedEv@Qt_5 5.10.1
 _ZN8QtCharts14QLegendPrivate7markersEPNS_15QAbstractSeriesE@Qt_5 5.10.1
 _ZN8QtCharts14QLegendPrivate9roundnessEd@Qt_5 5.10.1
 _ZN8QtCharts14QLegendPrivate9setOffsetERK7QPointF@Qt_5 5.10.1
 _ZN8QtCharts14QLegendPrivateC1EPNS_14ChartPresenterEPNS_6QChartEPNS_7QLegendE@Qt_5 5.10.1
 _ZN8QtCharts14QLegendPrivateC2EPNS_14ChartPresenterEPNS_6QChartEPNS_7QLegendE@Qt_5 5.10.1
 _ZN8QtCharts14QLegendPrivateD0Ev@Qt_5 5.10.1
 _ZN8QtCharts14QLegendPrivateD1Ev@Qt_5 5.10.1
 _ZN8QtCharts14QLegendPrivateD2Ev@Qt_5 5.10.1
 _ZN8QtCharts14QScatterSeries11qt_metacallEN11QMetaObject4CallEiPPv@Qt_5 5.7.1
 _ZN8QtCharts14QScatterSeries11qt_metacastEPKc@Qt_5 5.7.1
 _ZN8QtCharts14QScatterSeries12colorChangedE6QColor@Qt_5 5.7.1
 _ZN8QtCharts14QScatterSeries13setMarkerSizeEd@Qt_5 5.7.1
 _ZN8QtCharts14QScatterSeries14setBorderColorERK6QColor@Qt_5 5.7.1
 _ZN8QtCharts14QScatterSeries14setMarkerShapeENS0_11MarkerShapeE@Qt_5 5.7.1
 _ZN8QtCharts14QScatterSeries16staticMetaObjectE@Qt_5 5.7.1
 _ZN8QtCharts14QScatterSeries17markerSizeChangedEd@Qt_5 5.7.1
 _ZN8QtCharts14QScatterSeries18borderColorChangedE6QColor@Qt_5 5.7.1
 _ZN8QtCharts14QScatterSeries18markerShapeChangedENS0_11MarkerShapeE@Qt_5 5.7.1
 _ZN8QtCharts14QScatterSeries6setPenERK4QPen@Qt_5 5.7.1
 _ZN8QtCharts14QScatterSeries8setBrushERK6QBrush@Qt_5 5.7.1
 _ZN8QtCharts14QScatterSeries8setColorERK6QColor@Qt_5 5.7.1
 _ZN8QtCharts14QScatterSeriesC1EP7QObject@Qt_5 5.7.1
 _ZN8QtCharts14QScatterSeriesC2EP7QObject@Qt_5 5.7.1
 _ZN8QtCharts14QScatterSeriesD0Ev@Qt_5 5.7.1
 _ZN8QtCharts14QScatterSeriesD1Ev@Qt_5 5.7.1
 _ZN8QtCharts14QScatterSeriesD2Ev@Qt_5 5.7.1
 _ZN8QtCharts14QXYModelMapper11qt_metacallEN11QMetaObject4CallEiPPv@Qt_5 5.7.1
 _ZN8QtCharts14QXYModelMapper11qt_metacastEPKc@Qt_5 5.7.1
 _ZN8QtCharts14QXYModelMapper11setXSectionEi@Qt_5 5.7.1
 _ZN8QtCharts14QXYModelMapper11setYSectionEi@Qt_5 5.7.1
 _ZN8QtCharts14QXYModelMapper14setOrientationEN2Qt11OrientationE@Qt_5 5.7.1
 _ZN8QtCharts14QXYModelMapper16staticMetaObjectE@Qt_5 5.7.1
 _ZN8QtCharts14QXYModelMapper8setCountEi@Qt_5 5.7.1
 _ZN8QtCharts14QXYModelMapper8setFirstEi@Qt_5 5.7.1
 _ZN8QtCharts14QXYModelMapper8setModelEP18QAbstractItemModel@Qt_5 5.7.1
 _ZN8QtCharts14QXYModelMapper9setSeriesEPNS_9QXYSeriesE@Qt_5 5.7.1
 _ZN8QtCharts14QXYModelMapperC1EP7QObject@Qt_5 5.7.1
 _ZN8QtCharts14QXYModelMapperC2EP7QObject@Qt_5 5.7.1
 _ZN8QtCharts15ChartBackground11setDiameterEd@Qt_5 5.10.1
 _ZN8QtCharts15ChartBackground20setDropShadowEnabledEb@Qt_5 5.10.1
 _ZN8QtCharts15ChartBackground5paintEP8QPainterPK24QStyleOptionGraphicsItemP7QWidget@Qt_5 5.10.1
 _ZN8QtCharts15ChartBackgroundC1EP13QGraphicsItem@Qt_5 5.10.1
 _ZN8QtCharts15ChartBackgroundC2EP13QGraphicsItem@Qt_5 5.10.1
 _ZN8QtCharts15ChartBackgroundD0Ev@Qt_5 5.10.1
 _ZN8QtCharts15ChartBackgroundD1Ev@Qt_5 5.10.1
 _ZN8QtCharts15ChartBackgroundD2Ev@Qt_5 5.10.1
 _ZN8QtCharts15ChartValueAxisX11qt_metacallEN11QMetaObject4CallEiPPv@Qt_5 5.10.1
 _ZN8QtCharts15ChartValueAxisX11qt_metacastEPKc@Qt_5 5.10.1
 _ZN8QtCharts15ChartValueAxisX14updateGeometryEv@Qt_5 5.10.1
 _ZN8QtCharts15ChartValueAxisX16staticMetaObjectE@Qt_5 5.10.1
 _ZN8QtCharts15ChartValueAxisX22handleTickCountChangedEi@Qt_5 5.10.1
 _ZN8QtCharts15ChartValueAxisX24handleLabelFormatChangedERK7QString@Qt_5 5.10.1
 _ZN8QtCharts15ChartValueAxisX27handleMinorTickCountChangedEi@Qt_5 5.10.1
 _ZN8QtCharts15ChartValueAxisXC1EPNS_10QValueAxisEP13QGraphicsItem@Qt_5 5.10.1
 _ZN8QtCharts15ChartValueAxisXC2EPNS_10QValueAxisEP13QGraphicsItem@Qt_5 5.10.1
 _ZN8QtCharts15ChartValueAxisXD0Ev@Qt_5 5.10.1
 _ZN8QtCharts15ChartValueAxisXD1Ev@Qt_5 5.10.1
 _ZN8QtCharts15ChartValueAxisXD2Ev@Qt_5 5.10.1
 _ZN8QtCharts15ChartValueAxisY11qt_metacallEN11QMetaObject4CallEiPPv@Qt_5 5.10.1
 _ZN8QtCharts15ChartValueAxisY11qt_metacastEPKc@Qt_5 5.10.1
 _ZN8QtCharts15ChartValueAxisY14updateGeometryEv@Qt_5 5.10.1
 _ZN8QtCharts15ChartValueAxisY16staticMetaObjectE@Qt_5 5.10.1
 _ZN8QtCharts15ChartValueAxisY22handleTickCountChangedEi@Qt_5 5.10.1
 _ZN8QtCharts15ChartValueAxisY24handleLabelFormatChangedERK7QString@Qt_5 5.10.1
 _ZN8QtCharts15ChartValueAxisY27handleMinorTickCountChangedEi@Qt_5 5.10.1
 _ZN8QtCharts15ChartValueAxisYC1EPNS_10QValueAxisEP13QGraphicsItem@Qt_5 5.10.1
 _ZN8QtCharts15ChartValueAxisYC2EPNS_10QValueAxisEP13QGraphicsItem@Qt_5 5.10.1
 _ZN8QtCharts15ChartValueAxisYD0Ev@Qt_5 5.10.1
 _ZN8QtCharts15ChartValueAxisYD1Ev@Qt_5 5.10.1
 _ZN8QtCharts15ChartValueAxisYD2Ev@Qt_5 5.10.1
 _ZN8QtCharts15QAbstractSeries10attachAxisEPNS_13QAbstractAxisE@Qt_5 5.7.1
 _ZN8QtCharts15QAbstractSeries10detachAxisEPNS_13QAbstractAxisE@Qt_5 5.7.1
 _ZN8QtCharts15QAbstractSeries10setOpacityEd@Qt_5 5.7.1
 _ZN8QtCharts15QAbstractSeries10setVisibleEb@Qt_5 5.7.1
 _ZN8QtCharts15QAbstractSeries11nameChangedEv@Qt_5 5.7.1
 _ZN8QtCharts15QAbstractSeries11qt_metacallEN11QMetaObject4CallEiPPv@Qt_5 5.7.1
 _ZN8QtCharts15QAbstractSeries11qt_metacastEPKc@Qt_5 5.7.1
 _ZN8QtCharts15QAbstractSeries12attachedAxesEv@Qt_5 5.7.1
 _ZN8QtCharts15QAbstractSeries12setUseOpenGLEb@Qt_5 5.7.1
 _ZN8QtCharts15QAbstractSeries14opacityChangedEv@Qt_5 5.7.1
 _ZN8QtCharts15QAbstractSeries14visibleChangedEv@Qt_5 5.7.1
 _ZN8QtCharts15QAbstractSeries16staticMetaObjectE@Qt_5 5.7.1
 _ZN8QtCharts15QAbstractSeries16useOpenGLChangedEv@Qt_5 5.7.1
 _ZN8QtCharts15QAbstractSeries4hideEv@Qt_5 5.7.1
 _ZN8QtCharts15QAbstractSeries4showEv@Qt_5 5.7.1
 _ZN8QtCharts15QAbstractSeries7setNameERK7QString@Qt_5 5.7.1
 _ZN8QtCharts15QAbstractSeriesC1ERNS_22QAbstractSeriesPrivateEP7QObject@Qt_5 5.7.1
 _ZN8QtCharts15QAbstractSeriesC2ERNS_22QAbstractSeriesPrivateEP7QObject@Qt_5 5.7.1
 _ZN8QtCharts15QAbstractSeriesD0Ev@Qt_5 5.7.1
 _ZN8QtCharts15QAbstractSeriesD1Ev@Qt_5 5.7.1
 _ZN8QtCharts15QAbstractSeriesD2Ev@Qt_5 5.7.1
 _ZN8QtCharts15QBarModelMapper11qt_metacallEN11QMetaObject4CallEiPPv@Qt_5 5.7.1
 _ZN8QtCharts15QBarModelMapper11qt_metacastEPKc@Qt_5 5.7.1
 _ZN8QtCharts15QBarModelMapper14setOrientationEN2Qt11OrientationE@Qt_5 5.7.1
 _ZN8QtCharts15QBarModelMapper16staticMetaObjectE@Qt_5 5.7.1
 _ZN8QtCharts15QBarModelMapper20setLastBarSetSectionEi@Qt_5 5.7.1
 _ZN8QtCharts15QBarModelMapper21setFirstBarSetSectionEi@Qt_5 5.7.1
 _ZN8QtCharts15QBarModelMapper8setCountEi@Qt_5 5.7.1
 _ZN8QtCharts15QBarModelMapper8setFirstEi@Qt_5 5.7.1
 _ZN8QtCharts15QBarModelMapper8setModelEP18QAbstractItemModel@Qt_5 5.7.1
 _ZN8QtCharts15QBarModelMapper9setSeriesEPNS_18QAbstractBarSeriesE@Qt_5 5.7.1
 _ZN8QtCharts15QBarModelMapperC1EP7QObject@Qt_5 5.7.1
 _ZN8QtCharts15QBarModelMapperC2EP7QObject@Qt_5 5.7.1
 _ZN8QtCharts15QCandlestickSet10lowChangedEv@Qt_5 5.9.0~rc
 _ZN8QtCharts15QCandlestickSet10penChangedEv@Qt_5 5.9.0~rc
 _ZN8QtCharts15QCandlestickSet11highChangedEv@Qt_5 5.9.0~rc
 _ZN8QtCharts15QCandlestickSet11openChangedEv@Qt_5 5.9.0~rc
 _ZN8QtCharts15QCandlestickSet11qt_metacallEN11QMetaObject4CallEiPPv@Qt_5 5.9.0~rc
 _ZN8QtCharts15QCandlestickSet11qt_metacastEPKc@Qt_5 5.9.0~rc
 _ZN8QtCharts15QCandlestickSet12brushChangedEv@Qt_5 5.9.0~rc
 _ZN8QtCharts15QCandlestickSet12closeChangedEv@Qt_5 5.9.0~rc
 _ZN8QtCharts15QCandlestickSet12setTimestampEd@Qt_5 5.9.0~rc
 _ZN8QtCharts15QCandlestickSet13doubleClickedEv@Qt_5 5.9.0~rc
 _ZN8QtCharts15QCandlestickSet16staticMetaObjectE@Qt_5 5.9.0~rc
 _ZN8QtCharts15QCandlestickSet16timestampChangedEv@Qt_5 5.9.0~rc
 _ZN8QtCharts15QCandlestickSet6setLowEd@Qt_5 5.9.0~rc
 _ZN8QtCharts15QCandlestickSet6setPenERK4QPen@Qt_5 5.9.0~rc
 _ZN8QtCharts15QCandlestickSet7clickedEv@Qt_5 5.9.0~rc
 _ZN8QtCharts15QCandlestickSet7hoveredEb@Qt_5 5.9.0~rc
 _ZN8QtCharts15QCandlestickSet7pressedEv@Qt_5 5.9.0~rc
 _ZN8QtCharts15QCandlestickSet7setHighEd@Qt_5 5.9.0~rc
 _ZN8QtCharts15QCandlestickSet7setOpenEd@Qt_5 5.9.0~rc
 _ZN8QtCharts15QCandlestickSet8releasedEv@Qt_5 5.9.0~rc
 _ZN8QtCharts15QCandlestickSet8setBrushERK6QBrush@Qt_5 5.9.0~rc
 _ZN8QtCharts15QCandlestickSet8setCloseEd@Qt_5 5.9.0~rc
 _ZN8QtCharts15QCandlestickSetC1EdP7QObject@Qt_5 5.9.0~rc
 _ZN8QtCharts15QCandlestickSetC1EdddddP7QObject@Qt_5 5.9.0~rc
 _ZN8QtCharts15QCandlestickSetC2EdP7QObject@Qt_5 5.9.0~rc
 _ZN8QtCharts15QCandlestickSetC2EdddddP7QObject@Qt_5 5.9.0~rc
 _ZN8QtCharts15QCandlestickSetD0Ev@Qt_5 5.9.0~rc
 _ZN8QtCharts15QCandlestickSetD1Ev@Qt_5 5.9.0~rc
 _ZN8QtCharts15QCandlestickSetD2Ev@Qt_5 5.9.0~rc
 _ZN8QtCharts15QHXYModelMapper11qt_metacallEN11QMetaObject4CallEiPPv@Qt_5 5.7.1
 _ZN8QtCharts15QHXYModelMapper11qt_metacastEPKc@Qt_5 5.7.1
 _ZN8QtCharts15QHXYModelMapper11xRowChangedEv@Qt_5 5.7.1
 _ZN8QtCharts15QHXYModelMapper11yRowChangedEv@Qt_5 5.7.1
 _ZN8QtCharts15QHXYModelMapper13modelReplacedEv@Qt_5 5.7.1
 _ZN8QtCharts15QHXYModelMapper14seriesReplacedEv@Qt_5 5.7.1
 _ZN8QtCharts15QHXYModelMapper14setColumnCountEi@Qt_5 5.7.1
 _ZN8QtCharts15QHXYModelMapper14setFirstColumnEi@Qt_5 5.7.1
 _ZN8QtCharts15QHXYModelMapper16staticMetaObjectE@Qt_5 5.7.1
 _ZN8QtCharts15QHXYModelMapper18columnCountChangedEv@Qt_5 5.7.1
 _ZN8QtCharts15QHXYModelMapper18firstColumnChangedEv@Qt_5 5.7.1
 _ZN8QtCharts15QHXYModelMapper7setXRowEi@Qt_5 5.7.1
 _ZN8QtCharts15QHXYModelMapper7setYRowEi@Qt_5 5.7.1
 _ZN8QtCharts15QHXYModelMapper8setModelEP18QAbstractItemModel@Qt_5 5.7.1
 _ZN8QtCharts15QHXYModelMapper9setSeriesEPNS_9QXYSeriesE@Qt_5 5.7.1
 _ZN8QtCharts15QHXYModelMapperC1EP7QObject@Qt_5 5.7.1
 _ZN8QtCharts15QHXYModelMapperC2EP7QObject@Qt_5 5.7.1
 _ZN8QtCharts15QPieModelMapper11qt_metacallEN11QMetaObject4CallEiPPv@Qt_5 5.7.1
 _ZN8QtCharts15QPieModelMapper11qt_metacastEPKc@Qt_5 5.7.1
 _ZN8QtCharts15QPieModelMapper14setOrientationEN2Qt11OrientationE@Qt_5 5.7.1
 _ZN8QtCharts15QPieModelMapper16setLabelsSectionEi@Qt_5 5.7.1
 _ZN8QtCharts15QPieModelMapper16setValuesSectionEi@Qt_5 5.7.1
 _ZN8QtCharts15QPieModelMapper16staticMetaObjectE@Qt_5 5.7.1
 _ZN8QtCharts15QPieModelMapper8setCountEi@Qt_5 5.7.1
 _ZN8QtCharts15QPieModelMapper8setFirstEi@Qt_5 5.7.1
 _ZN8QtCharts15QPieModelMapper8setModelEP18QAbstractItemModel@Qt_5 5.7.1
 _ZN8QtCharts15QPieModelMapper9setSeriesEPNS_10QPieSeriesE@Qt_5 5.7.1
 _ZN8QtCharts15QPieModelMapperC1EP7QObject@Qt_5 5.7.1
 _ZN8QtCharts15QPieModelMapperC2EP7QObject@Qt_5 5.7.1
 _ZN8QtCharts15QVXYModelMapper10setXColumnEi@Qt_5 5.7.1
 _ZN8QtCharts15QVXYModelMapper10setYColumnEi@Qt_5 5.7.1
 _ZN8QtCharts15QVXYModelMapper11qt_metacallEN11QMetaObject4CallEiPPv@Qt_5 5.7.1
 _ZN8QtCharts15QVXYModelMapper11qt_metacastEPKc@Qt_5 5.7.1
 _ZN8QtCharts15QVXYModelMapper11setFirstRowEi@Qt_5 5.7.1
 _ZN8QtCharts15QVXYModelMapper11setRowCountEi@Qt_5 5.7.1
 _ZN8QtCharts15QVXYModelMapper13modelReplacedEv@Qt_5 5.7.1
 _ZN8QtCharts15QVXYModelMapper14seriesReplacedEv@Qt_5 5.7.1
 _ZN8QtCharts15QVXYModelMapper14xColumnChangedEv@Qt_5 5.7.1
 _ZN8QtCharts15QVXYModelMapper14yColumnChangedEv@Qt_5 5.7.1
 _ZN8QtCharts15QVXYModelMapper15firstRowChangedEv@Qt_5 5.7.1
 _ZN8QtCharts15QVXYModelMapper15rowCountChangedEv@Qt_5 5.7.1
 _ZN8QtCharts15QVXYModelMapper16staticMetaObjectE@Qt_5 5.7.1
 _ZN8QtCharts15QVXYModelMapper8setModelEP18QAbstractItemModel@Qt_5 5.7.1
 _ZN8QtCharts15QVXYModelMapper9setSeriesEPNS_9QXYSeriesE@Qt_5 5.7.1
 _ZN8QtCharts15QVXYModelMapperC1EP7QObject@Qt_5 5.7.1
 _ZN8QtCharts15QVXYModelMapperC2EP7QObject@Qt_5 5.7.1
 _ZN8QtCharts15QXYLegendMarker11qt_metacallEN11QMetaObject4CallEiPPv@Qt_5 5.7.1
 _ZN8QtCharts15QXYLegendMarker11qt_metacastEPKc@Qt_5 5.7.1
 _ZN8QtCharts15QXYLegendMarker16staticMetaObjectE@Qt_5 5.7.1
 _ZN8QtCharts15QXYLegendMarker6seriesEv@Qt_5 5.7.1
 _ZN8QtCharts15QXYLegendMarkerC1EPNS_9QXYSeriesEPNS_7QLegendEP7QObject@Qt_5 5.7.1
 _ZN8QtCharts15QXYLegendMarkerC1ERNS_22QXYLegendMarkerPrivateEP7QObject@Qt_5 5.7.1
 _ZN8QtCharts15QXYLegendMarkerC2EPNS_9QXYSeriesEPNS_7QLegendEP7QObject@Qt_5 5.7.1
 _ZN8QtCharts15QXYLegendMarkerC2ERNS_22QXYLegendMarkerPrivateEP7QObject@Qt_5 5.7.1
 _ZN8QtCharts15QXYLegendMarkerD0Ev@Qt_5 5.7.1
 _ZN8QtCharts15QXYLegendMarkerD1Ev@Qt_5 5.7.1
 _ZN8QtCharts15QXYLegendMarkerD2Ev@Qt_5 5.7.1
 _ZN8QtCharts15SplineAnimation11updateStateEN18QAbstractAnimation5StateES2_@Qt_5 5.10.1
 _ZN8QtCharts15SplineAnimation18updateCurrentValueERK8QVariant@Qt_5 5.10.1
 _ZN8QtCharts15SplineAnimation5setupER7QVectorI7QPointFES4_S4_S4_i@Qt_5 5.10.1
 _ZN8QtCharts15SplineAnimationC1EPNS_15SplineChartItemEiR12QEasingCurve@Qt_5 5.10.1
 _ZN8QtCharts15SplineAnimationC2EPNS_15SplineChartItemEiR12QEasingCurve@Qt_5 5.10.1
 _ZN8QtCharts15SplineAnimationD0Ev@Qt_5 5.10.1
 _ZN8QtCharts15SplineAnimationD1Ev@Qt_5 5.10.1
 _ZN8QtCharts15SplineAnimationD2Ev@Qt_5 5.10.1
 _ZN8QtCharts15SplineChartItem11qt_metacallEN11QMetaObject4CallEiPPv@Qt_5 5.10.1
 _ZN8QtCharts15SplineChartItem11qt_metacastEPKc@Qt_5 5.10.1
 _ZN8QtCharts15SplineChartItem11updateChartER7QVectorI7QPointFES4_i@Qt_5 5.10.1
 _ZN8QtCharts15SplineChartItem12setAnimationEPNS_15SplineAnimationE@Qt_5 5.10.1
 _ZN8QtCharts15SplineChartItem13handleUpdatedEv@Qt_5 5.10.1
 _ZN8QtCharts15SplineChartItem14updateGeometryEv@Qt_5 5.10.1
 _ZN8QtCharts15SplineChartItem15hoverEnterEventEP24QGraphicsSceneHoverEvent@Qt_5 5.10.1
 _ZN8QtCharts15SplineChartItem15hoverLeaveEventEP24QGraphicsSceneHoverEvent@Qt_5 5.10.1
 _ZN8QtCharts15SplineChartItem15mousePressEventEP24QGraphicsSceneMouseEvent@Qt_5 5.10.1
 _ZN8QtCharts15SplineChartItem16staticMetaObjectE@Qt_5 5.10.1
 _ZN8QtCharts15SplineChartItem17mouseReleaseEventEP24QGraphicsSceneMouseEvent@Qt_5 5.10.1
 _ZN8QtCharts15SplineChartItem18firstControlPointsERK7QVectorIdE@Qt_5 5.10.1
 _ZN8QtCharts15SplineChartItem21mouseDoubleClickEventEP24QGraphicsSceneMouseEvent@Qt_5 5.10.1
 _ZN8QtCharts15SplineChartItem22calculateControlPointsERK7QVectorI7QPointFE@Qt_5 5.10.1
 _ZN8QtCharts15SplineChartItem24setControlGeometryPointsER7QVectorI7QPointFE@Qt_5 5.10.1
 _ZN8QtCharts15SplineChartItem5paintEP8QPainterPK24QStyleOptionGraphicsItemP7QWidget@Qt_5 5.10.1
 _ZN8QtCharts15SplineChartItemC1EPNS_13QSplineSeriesEP13QGraphicsItem@Qt_5 5.10.1
 _ZN8QtCharts15SplineChartItemC2EPNS_13QSplineSeriesEP13QGraphicsItem@Qt_5 5.10.1
 _ZN8QtCharts16BoxPlotAnimation11qt_metacallEN11QMetaObject4CallEiPPv@Qt_5 5.10.1
 _ZN8QtCharts16BoxPlotAnimation11qt_metacastEPKc@Qt_5 5.10.1
 _ZN8QtCharts16BoxPlotAnimation12boxAnimationEPNS_11BoxWhiskersE@Qt_5 5.10.1
 _ZN8QtCharts16BoxPlotAnimation16staticMetaObjectE@Qt_5 5.10.1
 _ZN8QtCharts16BoxPlotAnimation17setAnimationStartEPNS_11BoxWhiskersE@Qt_5 5.10.1
 _ZN8QtCharts16BoxPlotAnimation18boxChangeAnimationEPNS_11BoxWhiskersE@Qt_5 5.10.1
 _ZN8QtCharts16BoxPlotAnimation18removeBoxAnimationEPNS_11BoxWhiskersE@Qt_5 5.10.1
 _ZN8QtCharts16BoxPlotAnimation6addBoxEPNS_11BoxWhiskersE@Qt_5 5.10.1
 _ZN8QtCharts16BoxPlotAnimation7stopAllEv@Qt_5 5.10.1
 _ZN8QtCharts16BoxPlotAnimationC1EPNS_16BoxPlotChartItemEiR12QEasingCurve@Qt_5 5.10.1
 _ZN8QtCharts16BoxPlotAnimationC2EPNS_16BoxPlotChartItemEiR12QEasingCurve@Qt_5 5.10.1
 _ZN8QtCharts16BoxPlotAnimationD0Ev@Qt_5 5.10.1
 _ZN8QtCharts16BoxPlotAnimationD1Ev@Qt_5 5.10.1
 _ZN8QtCharts16BoxPlotAnimationD2Ev@Qt_5 5.10.1
 _ZN8QtCharts16BoxPlotChartItem11qt_metacallEN11QMetaObject4CallEiPPv@Qt_5 5.10.1
 _ZN8QtCharts16BoxPlotChartItem11qt_metacastEPKc@Qt_5 5.10.1
 _ZN8QtCharts16BoxPlotChartItem12setAnimationEPNS_16BoxPlotAnimationE@Qt_5 5.10.1
 _ZN8QtCharts16BoxPlotChartItem15calculateLayoutEv@Qt_5 5.10.1
 _ZN8QtCharts16BoxPlotChartItem16initializeLayoutEv@Qt_5 5.10.1
 _ZN8QtCharts16BoxPlotChartItem16staticMetaObjectE@Qt_5 5.10.1
 _ZN8QtCharts16BoxPlotChartItem17handleUpdatedBarsEv@Qt_5 5.10.1
 _ZN8QtCharts16BoxPlotChartItem17updateBoxGeometryEPNS_11BoxWhiskersEi@Qt_5 5.10.1
 _ZN8QtCharts16BoxPlotChartItem18handleBoxsetRemoveE5QListIPNS_7QBoxSetEE@Qt_5 5.10.1
 _ZN8QtCharts16BoxPlotChartItem19handleDomainUpdatedEv@Qt_5 5.10.1
 _ZN8QtCharts16BoxPlotChartItem19handleLayoutChangedEv@Qt_5 5.10.1
 _ZN8QtCharts16BoxPlotChartItem20handleOpacityChangedEv@Qt_5 5.10.1
 _ZN8QtCharts16BoxPlotChartItem26handleDataStructureChangedEv@Qt_5 5.10.1
 _ZN8QtCharts16BoxPlotChartItem26handleSeriesVisibleChangedEv@Qt_5 5.10.1
 _ZN8QtCharts16BoxPlotChartItem5paintEP8QPainterPK24QStyleOptionGraphicsItemP7QWidget@Qt_5 5.10.1
 _ZN8QtCharts16BoxPlotChartItemC1EPNS_14QBoxPlotSeriesEP13QGraphicsItem@Qt_5 5.10.1
 _ZN8QtCharts16BoxPlotChartItemC2EPNS_14QBoxPlotSeriesEP13QGraphicsItem@Qt_5 5.10.1
 _ZN8QtCharts16BoxPlotChartItemD0Ev@Qt_5 5.10.1
 _ZN8QtCharts16BoxPlotChartItemD1Ev@Qt_5 5.10.1
 _ZN8QtCharts16BoxPlotChartItemD2Ev@Qt_5 5.10.1
 _ZN8QtCharts16ChartAxisElement11qt_metacallEN11QMetaObject4CallEiPPv@Qt_5 5.10.1
 _ZN8QtCharts16ChartAxisElement11qt_metacastEPKc@Qt_5 5.10.1
 _ZN8QtCharts16ChartAxisElement12axisSelectedEv@Qt_5 5.10.1
 _ZN8QtCharts16ChartAxisElement12connectSlotsEv@Qt_5 5.10.1
 _ZN8QtCharts16ChartAxisElement16staticMetaObjectE@Qt_5 5.10.1
 _ZN8QtCharts16ChartAxisElement18handleRangeChangedEdd@Qt_5 5.10.1
 _ZN8QtCharts16ChartAxisElement20handleReverseChangedEb@Qt_5 5.10.1
 _ZN8QtCharts16ChartAxisElement20handleVisibleChangedEb@Qt_5 5.10.1
 _ZN8QtCharts16ChartAxisElement22handleTitleFontChangedERK5QFont@Qt_5 5.10.1
 _ZN8QtCharts16ChartAxisElement22handleTitleTextChangedERK7QString@Qt_5 5.10.1
 _ZN8QtCharts16ChartAxisElement23handleLabelsFontChangedERK5QFont@Qt_5 5.10.1
 _ZN8QtCharts16ChartAxisElement23handleTitleBrushChangedERK6QBrush@Qt_5 5.10.1
 _ZN8QtCharts16ChartAxisElement24handleGridVisibleChangedEb@Qt_5 5.10.1
 _ZN8QtCharts16ChartAxisElement24handleLabelsAngleChangedEi@Qt_5 5.10.1
 _ZN8QtCharts16ChartAxisElement24handleLabelsBrushChangedERK6QBrush@Qt_5 5.10.1
 _ZN8QtCharts16ChartAxisElement25handleArrowVisibleChangedEb@Qt_5 5.10.1
 _ZN8QtCharts16ChartAxisElement25handleTitleVisibleChangedEb@Qt_5 5.10.1
 _ZN8QtCharts16ChartAxisElement26handleLabelsVisibleChangedEb@Qt_5 5.10.1
 _ZN8QtCharts16ChartAxisElement26handleShadesVisibleChangedEb@Qt_5 5.10.1
 _ZN8QtCharts16ChartAxisElement27handleLabelsPositionChangedEv@Qt_5 5.10.1
 _ZN8QtCharts16ChartAxisElement29handleMinorGridVisibleChangedEb@Qt_5 5.10.1
 _ZN8QtCharts16ChartAxisElement30handleMinorArrowVisibleChangedEb@Qt_5 5.10.1
 _ZN8QtCharts16ChartAxisElement7clickedEv@Qt_5 5.10.1
 _ZN8QtCharts16ChartAxisElement7isEmptyEv@Qt_5 5.10.1
 _ZN8QtCharts16ChartAxisElementC1EPNS_13QAbstractAxisEP13QGraphicsItemb@Qt_5 5.10.1
 _ZN8QtCharts16ChartAxisElementC2EPNS_13QAbstractAxisEP13QGraphicsItemb@Qt_5 5.10.1
 _ZN8QtCharts16ChartAxisElementD0Ev@Qt_5 5.10.1
 _ZN8QtCharts16ChartAxisElementD1Ev@Qt_5 5.10.1
 _ZN8QtCharts16ChartAxisElementD2Ev@Qt_5 5.10.1
 _ZN8QtCharts16LegendMarkerItem10setToolTipERK7QString@Qt_5 5.10.1
 _ZN8QtCharts16LegendMarkerItem11qt_metacallEN11QMetaObject4CallEiPPv@Qt_5 5.10.1
 _ZN8QtCharts16LegendMarkerItem11qt_metacastEPKc@Qt_5 5.10.1
 _ZN8QtCharts16LegendMarkerItem11setGeometryERK6QRectF@Qt_5 5.10.1
 _ZN8QtCharts16LegendMarkerItem11setItemRectEv@Qt_5 5.10.1
 _ZN8QtCharts16LegendMarkerItem12setSeriesPenERK4QPen@Qt_5 5.10.1
 _ZN8QtCharts16LegendMarkerItem13setLabelBrushERK6QBrush@Qt_5 5.10.1
 _ZN8QtCharts16LegendMarkerItem14setMarkerShapeENS_7QLegend11MarkerShapeE@Qt_5 5.10.1
 _ZN8QtCharts16LegendMarkerItem14setSeriesBrushERK6QBrush@Qt_5 5.10.1
 _ZN8QtCharts16LegendMarkerItem15hoverEnterEventEP24QGraphicsSceneHoverEvent@Qt_5 5.10.1
 _ZN8QtCharts16LegendMarkerItem15hoverLeaveEventEP24QGraphicsSceneHoverEvent@Qt_5 5.10.1
 _ZN8QtCharts16LegendMarkerItem16staticMetaObjectE@Qt_5 5.10.1
 _ZN8QtCharts16LegendMarkerItem17markerRectChangedEv@Qt_5 5.10.1
 _ZN8QtCharts16LegendMarkerItem18setItemBrushAndPenEv@Qt_5 5.10.1
 _ZN8QtCharts16LegendMarkerItem24updateMarkerShapeAndSizeEv@Qt_5 5.10.1
 _ZN8QtCharts16LegendMarkerItem5paintEP8QPainterPK24QStyleOptionGraphicsItemP7QWidget@Qt_5 5.10.1
 _ZN8QtCharts16LegendMarkerItem6setPenERK4QPen@Qt_5 5.10.1
 _ZN8QtCharts16LegendMarkerItem7setFontERK5QFont@Qt_5 5.10.1
 _ZN8QtCharts16LegendMarkerItem8setBrushERK6QBrush@Qt_5 5.10.1
 _ZN8QtCharts16LegendMarkerItem8setLabelE7QString@Qt_5 5.10.1
 _ZN8QtCharts16LegendMarkerItemC1EPNS_20QLegendMarkerPrivateEP15QGraphicsObject@Qt_5 5.10.1
 _ZN8QtCharts16LegendMarkerItemC2EPNS_20QLegendMarkerPrivateEP15QGraphicsObject@Qt_5 5.10.1
 _ZN8QtCharts16LegendMarkerItemD0Ev@Qt_5 5.10.1
 _ZN8QtCharts16LegendMarkerItemD1Ev@Qt_5 5.10.1
 _ZN8QtCharts16LegendMarkerItemD2Ev@Qt_5 5.10.1
 _ZN8QtCharts16LogXYPolarDomain10attachAxisEPNS_13QAbstractAxisE@Qt_5 5.10.1
 _ZN8QtCharts16LogXYPolarDomain10detachAxisEPNS_13QAbstractAxisE@Qt_5 5.10.1
 _ZN8QtCharts16LogXYPolarDomain11qt_metacallEN11QMetaObject4CallEiPPv@Qt_5 5.10.1
 _ZN8QtCharts16LogXYPolarDomain11qt_metacastEPKc@Qt_5 5.10.1
 _ZN8QtCharts16LogXYPolarDomain16staticMetaObjectE@Qt_5 5.10.1
 _ZN8QtCharts16LogXYPolarDomain31handleHorizontalAxisBaseChangedEd@Qt_5 5.10.1
 _ZN8QtCharts16LogXYPolarDomain4moveEdd@Qt_5 5.10.1
 _ZN8QtCharts16LogXYPolarDomain6zoomInERK6QRectF@Qt_5 5.10.1
 _ZN8QtCharts16LogXYPolarDomain7zoomOutERK6QRectF@Qt_5 5.10.1
 _ZN8QtCharts16LogXYPolarDomain8setRangeEdddd@Qt_5 5.10.1
 _ZN8QtCharts16LogXYPolarDomainC1EP7QObject@Qt_5 5.10.1
 _ZN8QtCharts16LogXYPolarDomainC2EP7QObject@Qt_5 5.10.1
 _ZN8QtCharts16LogXYPolarDomainD0Ev@Qt_5 5.10.1
 _ZN8QtCharts16LogXYPolarDomainD1Ev@Qt_5 5.10.1
 _ZN8QtCharts16LogXYPolarDomainD2Ev@Qt_5 5.10.1
 _ZN8QtCharts16PolarChartLayoutC1EPNS_14ChartPresenterE@Qt_5 5.10.1
 _ZN8QtCharts16PolarChartLayoutC2EPNS_14ChartPresenterE@Qt_5 5.10.1
 _ZN8QtCharts16PolarChartLayoutD0Ev@Qt_5 5.10.1
 _ZN8QtCharts16PolarChartLayoutD1Ev@Qt_5 5.10.1
 _ZN8QtCharts16PolarChartLayoutD2Ev@Qt_5 5.10.1
 _ZN8QtCharts16QBarCategoryAxis10categoriesEv@Qt_5 5.7.1
 _ZN8QtCharts16QBarCategoryAxis10maxChangedERK7QString@Qt_5 5.7.1
 _ZN8QtCharts16QBarCategoryAxis10minChangedERK7QString@Qt_5 5.7.1
 _ZN8QtCharts16QBarCategoryAxis11qt_metacallEN11QMetaObject4CallEiPPv@Qt_5 5.7.1
 _ZN8QtCharts16QBarCategoryAxis11qt_metacastEPKc@Qt_5 5.7.1
 _ZN8QtCharts16QBarCategoryAxis12countChangedEv@Qt_5 5.7.1
 _ZN8QtCharts16QBarCategoryAxis12rangeChangedERK7QStringS3_@Qt_5 5.7.1
 _ZN8QtCharts16QBarCategoryAxis13setCategoriesERK11QStringList@Qt_5 5.7.1
 _ZN8QtCharts16QBarCategoryAxis16staticMetaObjectE@Qt_5 5.7.1
 _ZN8QtCharts16QBarCategoryAxis17categoriesChangedEv@Qt_5 5.7.1
 _ZN8QtCharts16QBarCategoryAxis5clearEv@Qt_5 5.7.1
 _ZN8QtCharts16QBarCategoryAxis6appendERK11QStringList@Qt_5 5.7.1
 _ZN8QtCharts16QBarCategoryAxis6appendERK7QString@Qt_5 5.7.1
 _ZN8QtCharts16QBarCategoryAxis6insertEiRK7QString@Qt_5 5.7.1
 _ZN8QtCharts16QBarCategoryAxis6removeERK7QString@Qt_5 5.7.1
 _ZN8QtCharts16QBarCategoryAxis6setMaxERK7QString@Qt_5 5.7.1
 _ZN8QtCharts16QBarCategoryAxis6setMinERK7QString@Qt_5 5.7.1
 _ZN8QtCharts16QBarCategoryAxis7replaceERK7QStringS3_@Qt_5 5.7.1
 _ZN8QtCharts16QBarCategoryAxis8setRangeERK7QStringS3_@Qt_5 5.7.1
 _ZN8QtCharts16QBarCategoryAxisC1EP7QObject@Qt_5 5.7.1
 _ZN8QtCharts16QBarCategoryAxisC1ERNS_23QBarCategoryAxisPrivateEP7QObject@Qt_5 5.7.1
 _ZN8QtCharts16QBarCategoryAxisC2EP7QObject@Qt_5 5.7.1
 _ZN8QtCharts16QBarCategoryAxisC2ERNS_23QBarCategoryAxisPrivateEP7QObject@Qt_5 5.7.1
 _ZN8QtCharts16QBarCategoryAxisD0Ev@Qt_5 5.7.1
 _ZN8QtCharts16QBarCategoryAxisD1Ev@Qt_5 5.7.1
 _ZN8QtCharts16QBarCategoryAxisD2Ev@Qt_5 5.7.1
 _ZN8QtCharts16QBarLegendMarker11qt_metacallEN11QMetaObject4CallEiPPv@Qt_5 5.7.1
 _ZN8QtCharts16QBarLegendMarker11qt_metacastEPKc@Qt_5 5.7.1
 _ZN8QtCharts16QBarLegendMarker16staticMetaObjectE@Qt_5 5.7.1
 _ZN8QtCharts16QBarLegendMarker6barsetEv@Qt_5 5.7.1
 _ZN8QtCharts16QBarLegendMarker6seriesEv@Qt_5 5.7.1
 _ZN8QtCharts16QBarLegendMarkerC1EPNS_18QAbstractBarSeriesEPNS_7QBarSetEPNS_7QLegendEP7QObject@Qt_5 5.7.1
 _ZN8QtCharts16QBarLegendMarkerC1ERNS_23QBarLegendMarkerPrivateEP7QObject@Qt_5 5.7.1
 _ZN8QtCharts16QBarLegendMarkerC2EPNS_18QAbstractBarSeriesEPNS_7QBarSetEPNS_7QLegendEP7QObject@Qt_5 5.7.1
 _ZN8QtCharts16QBarLegendMarkerC2ERNS_23QBarLegendMarkerPrivateEP7QObject@Qt_5 5.7.1
 _ZN8QtCharts16QBarLegendMarkerD0Ev@Qt_5 5.7.1
 _ZN8QtCharts16QBarLegendMarkerD1Ev@Qt_5 5.7.1
 _ZN8QtCharts16QBarLegendMarkerD2Ev@Qt_5 5.7.1
 _ZN8QtCharts16QHBarModelMapper11qt_metacallEN11QMetaObject4CallEiPPv@Qt_5 5.7.1
 _ZN8QtCharts16QHBarModelMapper11qt_metacastEPKc@Qt_5 5.7.1
 _ZN8QtCharts16QHBarModelMapper13modelReplacedEv@Qt_5 5.7.1
 _ZN8QtCharts16QHBarModelMapper14seriesReplacedEv@Qt_5 5.7.1
 _ZN8QtCharts16QHBarModelMapper14setColumnCountEi@Qt_5 5.7.1
 _ZN8QtCharts16QHBarModelMapper14setFirstColumnEi@Qt_5 5.7.1
 _ZN8QtCharts16QHBarModelMapper16setLastBarSetRowEi@Qt_5 5.7.1
 _ZN8QtCharts16QHBarModelMapper16staticMetaObjectE@Qt_5 5.7.1
 _ZN8QtCharts16QHBarModelMapper17setFirstBarSetRowEi@Qt_5 5.7.1
 _ZN8QtCharts16QHBarModelMapper18columnCountChangedEv@Qt_5 5.7.1
 _ZN8QtCharts16QHBarModelMapper18firstColumnChangedEv@Qt_5 5.7.1
 _ZN8QtCharts16QHBarModelMapper20lastBarSetRowChangedEv@Qt_5 5.7.1
 _ZN8QtCharts16QHBarModelMapper21firstBarSetRowChangedEv@Qt_5 5.7.1
 _ZN8QtCharts16QHBarModelMapper8setModelEP18QAbstractItemModel@Qt_5 5.7.1
 _ZN8QtCharts16QHBarModelMapper9setSeriesEPNS_18QAbstractBarSeriesE@Qt_5 5.7.1
 _ZN8QtCharts16QHBarModelMapperC1EP7QObject@Qt_5 5.7.1
 _ZN8QtCharts16QHBarModelMapperC2EP7QObject@Qt_5 5.7.1
 _ZN8QtCharts16QHPieModelMapper11qt_metacallEN11QMetaObject4CallEiPPv@Qt_5 5.7.1
 _ZN8QtCharts16QHPieModelMapper11qt_metacastEPKc@Qt_5 5.7.1
 _ZN8QtCharts16QHPieModelMapper12setLabelsRowEi@Qt_5 5.7.1
 _ZN8QtCharts16QHPieModelMapper12setValuesRowEi@Qt_5 5.7.1
 _ZN8QtCharts16QHPieModelMapper13modelReplacedEv@Qt_5 5.7.1
 _ZN8QtCharts16QHPieModelMapper14seriesReplacedEv@Qt_5 5.7.1
 _ZN8QtCharts16QHPieModelMapper14setColumnCountEi@Qt_5 5.7.1
 _ZN8QtCharts16QHPieModelMapper14setFirstColumnEi@Qt_5 5.7.1
 _ZN8QtCharts16QHPieModelMapper16labelsRowChangedEv@Qt_5 5.7.1
 _ZN8QtCharts16QHPieModelMapper16staticMetaObjectE@Qt_5 5.7.1
 _ZN8QtCharts16QHPieModelMapper16valuesRowChangedEv@Qt_5 5.7.1
 _ZN8QtCharts16QHPieModelMapper18columnCountChangedEv@Qt_5 5.7.1
 _ZN8QtCharts16QHPieModelMapper18firstColumnChangedEv@Qt_5 5.7.1
 _ZN8QtCharts16QHPieModelMapper8setModelEP18QAbstractItemModel@Qt_5 5.7.1
 _ZN8QtCharts16QHPieModelMapper9setSeriesEPNS_10QPieSeriesE@Qt_5 5.7.1
 _ZN8QtCharts16QHPieModelMapperC1EP7QObject@Qt_5 5.7.1
 _ZN8QtCharts16QHPieModelMapperC2EP7QObject@Qt_5 5.7.1
 _ZN8QtCharts16QPieLegendMarker11qt_metacallEN11QMetaObject4CallEiPPv@Qt_5 5.7.1
 _ZN8QtCharts16QPieLegendMarker11qt_metacastEPKc@Qt_5 5.7.1
 _ZN8QtCharts16QPieLegendMarker16staticMetaObjectE@Qt_5 5.7.1
 _ZN8QtCharts16QPieLegendMarker5sliceEv@Qt_5 5.7.1
 _ZN8QtCharts16QPieLegendMarker6seriesEv@Qt_5 5.7.1
 _ZN8QtCharts16QPieLegendMarkerC1EPNS_10QPieSeriesEPNS_9QPieSliceEPNS_7QLegendEP7QObject@Qt_5 5.7.1
 _ZN8QtCharts16QPieLegendMarkerC1ERNS_23QPieLegendMarkerPrivateEP7QObject@Qt_5 5.7.1
 _ZN8QtCharts16QPieLegendMarkerC2EPNS_10QPieSeriesEPNS_9QPieSliceEPNS_7QLegendEP7QObject@Qt_5 5.7.1
 _ZN8QtCharts16QPieLegendMarkerC2ERNS_23QPieLegendMarkerPrivateEP7QObject@Qt_5 5.7.1
 _ZN8QtCharts16QPieLegendMarkerD0Ev@Qt_5 5.7.1
 _ZN8QtCharts16QPieLegendMarkerD1Ev@Qt_5 5.7.1
 _ZN8QtCharts16QPieLegendMarkerD2Ev@Qt_5 5.7.1
 _ZN8QtCharts16QPieSlicePrivate11qt_metacallEN11QMetaObject4CallEiPPv@Qt_5 5.10.1
 _ZN8QtCharts16QPieSlicePrivate11qt_metacastEPKc@Qt_5 5.10.1
 _ZN8QtCharts16QPieSlicePrivate12setAngleSpanEd@Qt_5 5.10.1
 _ZN8QtCharts16QPieSlicePrivate12setLabelFontERK5QFontb@Qt_5 5.10.1
 _ZN8QtCharts16QPieSlicePrivate13setLabelBrushERK6QBrushb@Qt_5 5.10.1
 _ZN8QtCharts16QPieSlicePrivate13setPercentageEd@Qt_5 5.10.1
 _ZN8QtCharts16QPieSlicePrivate13setStartAngleEd@Qt_5 5.10.1
 _ZN8QtCharts16QPieSlicePrivate15explodedChangedEv@Qt_5 5.10.1
 _ZN8QtCharts16QPieSlicePrivate16staticMetaObjectE@Qt_5 5.10.1
 _ZN8QtCharts16QPieSlicePrivate20labelPositionChangedEv@Qt_5 5.10.1
 _ZN8QtCharts16QPieSlicePrivate27labelArmLengthFactorChangedEv@Qt_5 5.10.1
 _ZN8QtCharts16QPieSlicePrivate28explodeDistanceFactorChangedEv@Qt_5 5.10.1
 _ZN8QtCharts16QPieSlicePrivate6setPenERK4QPenb@Qt_5 5.10.1
 _ZN8QtCharts16QPieSlicePrivate8setBrushERK6QBrushb@Qt_5 5.10.1
 _ZN8QtCharts16QPieSlicePrivate9fromSliceEPNS_9QPieSliceE@Qt_5 5.10.1
 _ZN8QtCharts16QPieSlicePrivateC1EPNS_9QPieSliceE@Qt_5 5.10.1
 _ZN8QtCharts16QPieSlicePrivateC2EPNS_9QPieSliceE@Qt_5 5.10.1
 _ZN8QtCharts16QPieSlicePrivateD0Ev@Qt_5 5.10.1
 _ZN8QtCharts16QPieSlicePrivateD1Ev@Qt_5 5.10.1
 _ZN8QtCharts16QPieSlicePrivateD2Ev@Qt_5 5.10.1
 _ZN8QtCharts16QVBarModelMapper11qt_metacallEN11QMetaObject4CallEiPPv@Qt_5 5.7.1
 _ZN8QtCharts16QVBarModelMapper11qt_metacastEPKc@Qt_5 5.7.1
 _ZN8QtCharts16QVBarModelMapper11setFirstRowEi@Qt_5 5.7.1
 _ZN8QtCharts16QVBarModelMapper11setRowCountEi@Qt_5 5.7.1
 _ZN8QtCharts16QVBarModelMapper13modelReplacedEv@Qt_5 5.7.1
 _ZN8QtCharts16QVBarModelMapper14seriesReplacedEv@Qt_5 5.7.1
 _ZN8QtCharts16QVBarModelMapper15firstRowChangedEv@Qt_5 5.7.1
 _ZN8QtCharts16QVBarModelMapper15rowCountChangedEv@Qt_5 5.7.1
 _ZN8QtCharts16QVBarModelMapper16staticMetaObjectE@Qt_5 5.7.1
 _ZN8QtCharts16QVBarModelMapper19setLastBarSetColumnEi@Qt_5 5.7.1
 _ZN8QtCharts16QVBarModelMapper20setFirstBarSetColumnEi@Qt_5 5.7.1
 _ZN8QtCharts16QVBarModelMapper23lastBarSetColumnChangedEv@Qt_5 5.7.1
 _ZN8QtCharts16QVBarModelMapper24firstBarSetColumnChangedEv@Qt_5 5.7.1
 _ZN8QtCharts16QVBarModelMapper8setModelEP18QAbstractItemModel@Qt_5 5.7.1
 _ZN8QtCharts16QVBarModelMapper9setSeriesEPNS_18QAbstractBarSeriesE@Qt_5 5.7.1
 _ZN8QtCharts16QVBarModelMapperC1EP7QObject@Qt_5 5.7.1
 _ZN8QtCharts16QVBarModelMapperC2EP7QObject@Qt_5 5.7.1
 _ZN8QtCharts16QVPieModelMapper11qt_metacallEN11QMetaObject4CallEiPPv@Qt_5 5.7.1
 _ZN8QtCharts16QVPieModelMapper11qt_metacastEPKc@Qt_5 5.7.1
 _ZN8QtCharts16QVPieModelMapper11setFirstRowEi@Qt_5 5.7.1
 _ZN8QtCharts16QVPieModelMapper11setRowCountEi@Qt_5 5.7.1
 _ZN8QtCharts16QVPieModelMapper13modelReplacedEv@Qt_5 5.7.1
 _ZN8QtCharts16QVPieModelMapper14seriesReplacedEv@Qt_5 5.7.1
 _ZN8QtCharts16QVPieModelMapper15firstRowChangedEv@Qt_5 5.7.1
 _ZN8QtCharts16QVPieModelMapper15rowCountChangedEv@Qt_5 5.7.1
 _ZN8QtCharts16QVPieModelMapper15setLabelsColumnEi@Qt_5 5.7.1
 _ZN8QtCharts16QVPieModelMapper15setValuesColumnEi@Qt_5 5.7.1
 _ZN8QtCharts16QVPieModelMapper16staticMetaObjectE@Qt_5 5.7.1
 _ZN8QtCharts16QVPieModelMapper19labelsColumnChangedEv@Qt_5 5.7.1
 _ZN8QtCharts16QVPieModelMapper19valuesColumnChangedEv@Qt_5 5.7.1
 _ZN8QtCharts16QVPieModelMapper8setModelEP18QAbstractItemModel@Qt_5 5.7.1
 _ZN8QtCharts16QVPieModelMapper9setSeriesEPNS_10QPieSeriesE@Qt_5 5.7.1
 _ZN8QtCharts16QVPieModelMapperC1EP7QObject@Qt_5 5.7.1
 _ZN8QtCharts16QVPieModelMapperC2EP7QObject@Qt_5 5.7.1
 _ZN8QtCharts16QXYSeriesPrivate11qt_metacallEN11QMetaObject4CallEiPPv@Qt_5 5.10.1
 _ZN8QtCharts16QXYSeriesPrivate11qt_metacastEPKc@Qt_5 5.10.1
 _ZN8QtCharts16QXYSeriesPrivate14initializeAxesEv@Qt_5 5.10.1
 _ZN8QtCharts16QXYSeriesPrivate16initializeDomainEv@Qt_5 5.10.1
 _ZN8QtCharts16QXYSeriesPrivate16staticMetaObjectE@Qt_5 5.10.1
 _ZN8QtCharts16QXYSeriesPrivate19createLegendMarkersEPNS_7QLegendE@Qt_5 5.10.1
 _ZN8QtCharts16QXYSeriesPrivate20initializeAnimationsE6QFlagsINS_6QChart15AnimationOptionEEiR12QEasingCurve@Qt_5 5.10.1
 _ZN8QtCharts16QXYSeriesPrivate21drawSeriesPointLabelsEP8QPainterRK7QVectorI7QPointFEi@Qt_5 5.10.1
 _ZN8QtCharts16QXYSeriesPrivate7updatedEv@Qt_5 5.10.1
 _ZN8QtCharts16QXYSeriesPrivateC1EPNS_9QXYSeriesE@Qt_5 5.10.1
 _ZN8QtCharts16QXYSeriesPrivateC2EPNS_9QXYSeriesE@Qt_5 5.10.1
 _ZN8QtCharts16ScatterAnimation11updateStateEN18QAbstractAnimation5StateES2_@Qt_5 5.10.1
 _ZN8QtCharts16ScatterAnimationC1EPNS_16ScatterChartItemEiR12QEasingCurve@Qt_5 5.10.1
 _ZN8QtCharts16ScatterAnimationC2EPNS_16ScatterChartItemEiR12QEasingCurve@Qt_5 5.10.1
 _ZN8QtCharts16ScatterAnimationD0Ev@Qt_5 5.10.1
 _ZN8QtCharts16ScatterAnimationD1Ev@Qt_5 5.10.1
 _ZN8QtCharts16ScatterAnimationD2Ev@Qt_5 5.10.1
 _ZN8QtCharts16ScatterChartItem11qt_metacallEN11QMetaObject4CallEiPPv@Qt_5 5.10.1
 _ZN8QtCharts16ScatterChartItem11qt_metacastEPKc@Qt_5 5.10.1
 _ZN8QtCharts16ScatterChartItem12createPointsEi@Qt_5 5.10.1
 _ZN8QtCharts16ScatterChartItem12deletePointsEi@Qt_5 5.10.1
 _ZN8QtCharts16ScatterChartItem13handleUpdatedEv@Qt_5 5.10.1
 _ZN8QtCharts16ScatterChartItem13markerHoveredEP13QGraphicsItemb@Qt_5 5.10.1
 _ZN8QtCharts16ScatterChartItem13markerPressedEP13QGraphicsItem@Qt_5 5.10.1
 _ZN8QtCharts16ScatterChartItem14markerReleasedEP13QGraphicsItem@Qt_5 5.10.1
 _ZN8QtCharts16ScatterChartItem14markerSelectedEP13QGraphicsItem@Qt_5 5.10.1
 _ZN8QtCharts16ScatterChartItem14updateGeometryEv@Qt_5 5.10.1
 _ZN8QtCharts16ScatterChartItem16staticMetaObjectE@Qt_5 5.10.1
 _ZN8QtCharts16ScatterChartItem19markerDoubleClickedEP13QGraphicsItem@Qt_5 5.10.1
 _ZN8QtCharts16ScatterChartItem5paintEP8QPainterPK24QStyleOptionGraphicsItemP7QWidget@Qt_5 5.10.1
 _ZN8QtCharts16ScatterChartItem6setPenERK4QPen@Qt_5 5.10.1
 _ZN8QtCharts16ScatterChartItem8setBrushERK6QBrush@Qt_5 5.10.1
 _ZN8QtCharts16ScatterChartItemC1EPNS_14QScatterSeriesEP13QGraphicsItem@Qt_5 5.10.1
 _ZN8QtCharts16ScatterChartItemC2EPNS_14QScatterSeriesEP13QGraphicsItem@Qt_5 5.10.1
 _ZN8QtCharts16XLogYPolarDomain10attachAxisEPNS_13QAbstractAxisE@Qt_5 5.10.1
 _ZN8QtCharts16XLogYPolarDomain10detachAxisEPNS_13QAbstractAxisE@Qt_5 5.10.1
 _ZN8QtCharts16XLogYPolarDomain11qt_metacallEN11QMetaObject4CallEiPPv@Qt_5 5.10.1
 _ZN8QtCharts16XLogYPolarDomain11qt_metacastEPKc@Qt_5 5.10.1
 _ZN8QtCharts16XLogYPolarDomain16staticMetaObjectE@Qt_5 5.10.1
 _ZN8QtCharts16XLogYPolarDomain29handleVerticalAxisBaseChangedEd@Qt_5 5.10.1
 _ZN8QtCharts16XLogYPolarDomain4moveEdd@Qt_5 5.10.1
 _ZN8QtCharts16XLogYPolarDomain6zoomInERK6QRectF@Qt_5 5.10.1
 _ZN8QtCharts16XLogYPolarDomain7zoomOutERK6QRectF@Qt_5 5.10.1
 _ZN8QtCharts16XLogYPolarDomain8setRangeEdddd@Qt_5 5.10.1
 _ZN8QtCharts16XLogYPolarDomainC1EP7QObject@Qt_5 5.10.1
 _ZN8QtCharts16XLogYPolarDomainC2EP7QObject@Qt_5 5.10.1
 _ZN8QtCharts16XLogYPolarDomainD0Ev@Qt_5 5.10.1
 _ZN8QtCharts16XLogYPolarDomainD1Ev@Qt_5 5.10.1
 _ZN8QtCharts16XLogYPolarDomainD2Ev@Qt_5 5.10.1
 _ZN8QtCharts17ChartThemeManager11qt_metacallEN11QMetaObject4CallEiPPv@Qt_5 5.10.1
 _ZN8QtCharts17ChartThemeManager11qt_metacastEPKc@Qt_5 5.10.1
 _ZN8QtCharts17ChartThemeManager12updateSeriesEPNS_15QAbstractSeriesE@Qt_5 5.10.1
 _ZN8QtCharts17ChartThemeManager15handleAxisAddedEPNS_13QAbstractAxisE@Qt_5 5.10.1
 _ZN8QtCharts17ChartThemeManager16staticMetaObjectE@Qt_5 5.10.1
 _ZN8QtCharts17ChartThemeManager17handleAxisRemovedEPNS_13QAbstractAxisE@Qt_5 5.10.1
 _ZN8QtCharts17ChartThemeManager17handleSeriesAddedEPNS_15QAbstractSeriesE@Qt_5 5.10.1
 _ZN8QtCharts17ChartThemeManager19handleSeriesRemovedEPNS_15QAbstractSeriesE@Qt_5 5.10.1
 _ZN8QtCharts17ChartThemeManager23generateSeriesGradientsERK5QListI6QColorE@Qt_5 5.10.1
 _ZN8QtCharts17ChartThemeManager7colorAtERK6QColorS3_d@Qt_5 5.10.1
 _ZN8QtCharts17ChartThemeManager7colorAtERK9QGradientd@Qt_5 5.10.1
 _ZN8QtCharts17ChartThemeManager8setThemeENS_6QChart10ChartThemeE@Qt_5 5.10.1
 _ZN8QtCharts17ChartThemeManagerC1EPNS_6QChartE@Qt_5 5.10.1
 _ZN8QtCharts17ChartThemeManagerC2EPNS_6QChartE@Qt_5 5.10.1
 _ZN8QtCharts17PieSliceAnimation11updateValueERKNS_12PieSliceDataE@Qt_5 5.10.1
 _ZN8QtCharts17PieSliceAnimation17currentSliceValueEv@Qt_5 5.10.1
 _ZN8QtCharts17PieSliceAnimation18updateCurrentValueERK8QVariant@Qt_5 5.10.1
 _ZN8QtCharts17PieSliceAnimation8setValueERKNS_12PieSliceDataES3_@Qt_5 5.10.1
 _ZN8QtCharts17PieSliceAnimationC1EPNS_12PieSliceItemE@Qt_5 5.10.1
 _ZN8QtCharts17PieSliceAnimationC2EPNS_12PieSliceItemE@Qt_5 5.10.1
 _ZN8QtCharts17PieSliceAnimationD0Ev@Qt_5 5.10.1
 _ZN8QtCharts17PieSliceAnimationD1Ev@Qt_5 5.10.1
 _ZN8QtCharts17PieSliceAnimationD2Ev@Qt_5 5.10.1
 _ZN8QtCharts17QAreaLegendMarker11qt_metacallEN11QMetaObject4CallEiPPv@Qt_5 5.7.1
 _ZN8QtCharts17QAreaLegendMarker11qt_metacastEPKc@Qt_5 5.7.1
 _ZN8QtCharts17QAreaLegendMarker16staticMetaObjectE@Qt_5 5.7.1
 _ZN8QtCharts17QAreaLegendMarker6seriesEv@Qt_5 5.7.1
 _ZN8QtCharts17QAreaLegendMarkerC1EPNS_11QAreaSeriesEPNS_7QLegendEP7QObject@Qt_5 5.7.1
 _ZN8QtCharts17QAreaLegendMarkerC1ERNS_24QAreaLegendMarkerPrivateEP7QObject@Qt_5 5.7.1
 _ZN8QtCharts17QAreaLegendMarkerC2EPNS_11QAreaSeriesEPNS_7QLegendEP7QObject@Qt_5 5.7.1
 _ZN8QtCharts17QAreaLegendMarkerC2ERNS_24QAreaLegendMarkerPrivateEP7QObject@Qt_5 5.7.1
 _ZN8QtCharts17QAreaLegendMarkerD0Ev@Qt_5 5.7.1
 _ZN8QtCharts17QAreaLegendMarkerD1Ev@Qt_5 5.7.1
 _ZN8QtCharts17QAreaLegendMarkerD2Ev@Qt_5 5.7.1
 _ZN8QtCharts17QBarSeriesPrivate16initializeDomainEv@Qt_5 5.10.1
 _ZN8QtCharts17QBarSeriesPrivate18initializeGraphicsEP13QGraphicsItem@Qt_5 5.10.1
 _ZN8QtCharts17QBarSeriesPrivateC1EPNS_10QBarSeriesE@Qt_5 5.10.1
 _ZN8QtCharts17QBarSeriesPrivateC2EPNS_10QBarSeriesE@Qt_5 5.10.1
 _ZN8QtCharts17QChartViewPrivate6resizeEv@Qt_5 5.10.1
 _ZN8QtCharts17QChartViewPrivate8setChartEPNS_6QChartE@Qt_5 5.10.1
 _ZN8QtCharts17QChartViewPrivateC1EPNS_10QChartViewEPNS_6QChartE@Qt_5 5.10.1
 _ZN8QtCharts17QChartViewPrivateC2EPNS_10QChartViewEPNS_6QChartE@Qt_5 5.10.1
 _ZN8QtCharts17QChartViewPrivateD1Ev@Qt_5 5.10.1
 _ZN8QtCharts17QChartViewPrivateD2Ev@Qt_5 5.10.1
 _ZN8QtCharts17QPercentBarSeries11qt_metacallEN11QMetaObject4CallEiPPv@Qt_5 5.7.1
 _ZN8QtCharts17QPercentBarSeries11qt_metacastEPKc@Qt_5 5.7.1
 _ZN8QtCharts17QPercentBarSeries16staticMetaObjectE@Qt_5 5.7.1
 _ZN8QtCharts17QPercentBarSeriesC1EP7QObject@Qt_5 5.7.1
 _ZN8QtCharts17QPercentBarSeriesC2EP7QObject@Qt_5 5.7.1
 _ZN8QtCharts17QPercentBarSeriesD0Ev@Qt_5 5.7.1
 _ZN8QtCharts17QPercentBarSeriesD1Ev@Qt_5 5.7.1
 _ZN8QtCharts17QPercentBarSeriesD2Ev@Qt_5 5.7.1
 _ZN8QtCharts17QPieSeriesPrivate10fromSeriesEPNS_10QPieSeriesE@Qt_5 5.10.1
 _ZN8QtCharts17QPieSeriesPrivate11qt_metacallEN11QMetaObject4CallEiPPv@Qt_5 5.10.1
 _ZN8QtCharts17QPieSeriesPrivate11qt_metacastEPKc@Qt_5 5.10.1
 _ZN8QtCharts17QPieSeriesPrivate12sliceClickedEv@Qt_5 5.10.1
 _ZN8QtCharts17QPieSeriesPrivate12sliceHoveredEb@Qt_5 5.10.1
 _ZN8QtCharts17QPieSeriesPrivate12slicePressedEv@Qt_5 5.10.1
 _ZN8QtCharts17QPieSeriesPrivate13sliceReleasedEv@Qt_5 5.10.1
 _ZN8QtCharts17QPieSeriesPrivate14initializeAxesEv@Qt_5 5.10.1
 _ZN8QtCharts17QPieSeriesPrivate14pieSizeChangedEv@Qt_5 5.10.1
 _ZN8QtCharts17QPieSeriesPrivate15initializeThemeEiPNS_10ChartThemeEb@Qt_5 5.10.1
 _ZN8QtCharts17QPieSeriesPrivate16initializeDomainEv@Qt_5 5.10.1
 _ZN8QtCharts17QPieSeriesPrivate16staticMetaObjectE@Qt_5 5.10.1
 _ZN8QtCharts17QPieSeriesPrivate17sliceValueChangedEv@Qt_5 5.10.1
 _ZN8QtCharts17QPieSeriesPrivate18initializeGraphicsEP13QGraphicsItem@Qt_5 5.10.1
 _ZN8QtCharts17QPieSeriesPrivate18pieEndAngleChangedEv@Qt_5 5.10.1
 _ZN8QtCharts17QPieSeriesPrivate18sliceDoubleClickedEv@Qt_5 5.10.1
 _ZN8QtCharts17QPieSeriesPrivate19createLegendMarkersEPNS_7QLegendE@Qt_5 5.10.1
 _ZN8QtCharts17QPieSeriesPrivate20initializeAnimationsE6QFlagsINS_6QChart15AnimationOptionEEiR12QEasingCurve@Qt_5 5.10.1
 _ZN8QtCharts17QPieSeriesPrivate20pieStartAngleChangedEv@Qt_5 5.10.1
 _ZN8QtCharts17QPieSeriesPrivate20updateDerivativeDataEv@Qt_5 5.10.1
 _ZN8QtCharts17QPieSeriesPrivate21calculatedDataChangedEv@Qt_5 5.10.1
 _ZN8QtCharts17QPieSeriesPrivate23verticalPositionChangedEv@Qt_5 5.10.1
 _ZN8QtCharts17QPieSeriesPrivate25horizontalPositionChangedEv@Qt_5 5.10.1
 _ZN8QtCharts17QPieSeriesPrivate8setSizesEdd@Qt_5 5.10.1
 _ZN8QtCharts17QPieSeriesPrivateC1EPNS_10QPieSeriesE@Qt_5 5.10.1
 _ZN8QtCharts17QPieSeriesPrivateC2EPNS_10QPieSeriesE@Qt_5 5.10.1
 _ZN8QtCharts17QPieSeriesPrivateD0Ev@Qt_5 5.10.1
 _ZN8QtCharts17QPieSeriesPrivateD1Ev@Qt_5 5.10.1
 _ZN8QtCharts17QPieSeriesPrivateD2Ev@Qt_5 5.10.1
 _ZN8QtCharts17QStackedBarSeries11qt_metacallEN11QMetaObject4CallEiPPv@Qt_5 5.7.1
 _ZN8QtCharts17QStackedBarSeries11qt_metacastEPKc@Qt_5 5.7.1
 _ZN8QtCharts17QStackedBarSeries16staticMetaObjectE@Qt_5 5.7.1
 _ZN8QtCharts17QStackedBarSeriesC1EP7QObject@Qt_5 5.7.1
 _ZN8QtCharts17QStackedBarSeriesC2EP7QObject@Qt_5 5.7.1
 _ZN8QtCharts17QStackedBarSeriesD0Ev@Qt_5 5.7.1
 _ZN8QtCharts17QStackedBarSeriesD1Ev@Qt_5 5.7.1
 _ZN8QtCharts17QStackedBarSeriesD2Ev@Qt_5 5.7.1
 _ZN8QtCharts17QValueAxisPrivate11qt_metacallEN11QMetaObject4CallEiPPv@Qt_5 5.10.1
 _ZN8QtCharts17QValueAxisPrivate11qt_metacastEPKc@Qt_5 5.10.1
 _ZN8QtCharts17QValueAxisPrivate16initializeDomainEPNS_14AbstractDomainE@Qt_5 5.10.1
 _ZN8QtCharts17QValueAxisPrivate16staticMetaObjectE@Qt_5 5.10.1
 _ZN8QtCharts17QValueAxisPrivate18initializeGraphicsEP13QGraphicsItem@Qt_5 5.10.1
 _ZN8QtCharts17QValueAxisPrivate6setMaxERK8QVariant@Qt_5 5.10.1
 _ZN8QtCharts17QValueAxisPrivate6setMinERK8QVariant@Qt_5 5.10.1
 _ZN8QtCharts17QValueAxisPrivate8setRangeERK8QVariantS3_@Qt_5 5.10.1
 _ZN8QtCharts17QValueAxisPrivate8setRangeEdd@Qt_5 5.10.1
 _ZN8QtCharts17QValueAxisPrivateC1EPNS_10QValueAxisE@Qt_5 5.10.1
 _ZN8QtCharts17QValueAxisPrivateC2EPNS_10QValueAxisE@Qt_5 5.10.1
 _ZN8QtCharts17QValueAxisPrivateD0Ev@Qt_5 5.10.1
 _ZN8QtCharts17QValueAxisPrivateD1Ev@Qt_5 5.10.1
 _ZN8QtCharts17QValueAxisPrivateD2Ev@Qt_5 5.10.1
 _ZN8QtCharts18CartesianChartAxis11createItemsEi@Qt_5 5.10.1
 _ZN8QtCharts18CartesianChartAxis11deleteItemsEi@Qt_5 5.10.1
 _ZN8QtCharts18CartesianChartAxis11qt_metacallEN11QMetaObject4CallEiPPv@Qt_5 5.10.1
 _ZN8QtCharts18CartesianChartAxis11qt_metacastEPKc@Qt_5 5.10.1
 _ZN8QtCharts18CartesianChartAxis11setGeometryERK6QRectFS3_@Qt_5 5.10.1
 _ZN8QtCharts18CartesianChartAxis12updateLayoutER7QVectorIdE@Qt_5 5.10.1
 _ZN8QtCharts18CartesianChartAxis16staticMetaObjectE@Qt_5 5.10.1
 _ZN8QtCharts18CartesianChartAxis20handleGridPenChangedERK4QPen@Qt_5 5.10.1
 _ZN8QtCharts18CartesianChartAxis20updateMinorTickItemsEv@Qt_5 5.10.1
 _ZN8QtCharts18CartesianChartAxis21handleArrowPenChangedERK4QPen@Qt_5 5.10.1
 _ZN8QtCharts18CartesianChartAxis22handleShadesPenChangedERK4QPen@Qt_5 5.10.1
 _ZN8QtCharts18CartesianChartAxis24handleShadesBrushChangedERK6QBrush@Qt_5 5.10.1
 _ZN8QtCharts18CartesianChartAxis25handleMinorGridPenChangedERK4QPen@Qt_5 5.10.1
 _ZN8QtCharts18CartesianChartAxis26handleGridLineColorChangedERK6QColor@Qt_5 5.10.1
 _ZN8QtCharts18CartesianChartAxis26handleMinorArrowPenChangedERK4QPen@Qt_5 5.10.1
 _ZN8QtCharts18CartesianChartAxis31handleMinorGridLineColorChangedERK6QColor@Qt_5 5.10.1
 _ZN8QtCharts18CartesianChartAxis7isEmptyEv@Qt_5 5.10.1
 _ZN8QtCharts18CartesianChartAxisC1EPNS_13QAbstractAxisEP13QGraphicsItemb@Qt_5 5.10.1
 _ZN8QtCharts18CartesianChartAxisC2EPNS_13QAbstractAxisEP13QGraphicsItemb@Qt_5 5.10.1
 _ZN8QtCharts18CartesianChartAxisD0Ev@Qt_5 5.10.1
 _ZN8QtCharts18CartesianChartAxisD1Ev@Qt_5 5.10.1
 _ZN8QtCharts18CartesianChartAxisD2Ev@Qt_5 5.10.1
 _ZN8QtCharts18ChartCategoryAxisX11qt_metacallEN11QMetaObject4CallEiPPv@Qt_5 5.10.1
 _ZN8QtCharts18ChartCategoryAxisX11qt_metacastEPKc@Qt_5 5.10.1
 _ZN8QtCharts18ChartCategoryAxisX14updateGeometryEv@Qt_5 5.10.1
 _ZN8QtCharts18ChartCategoryAxisX16staticMetaObjectE@Qt_5 5.10.1
 _ZN8QtCharts18ChartCategoryAxisX23handleCategoriesChangedEv@Qt_5 5.10.1
 _ZN8QtCharts18ChartCategoryAxisXC1EPNS_13QCategoryAxisEP13QGraphicsItem@Qt_5 5.10.1
 _ZN8QtCharts18ChartCategoryAxisXC2EPNS_13QCategoryAxisEP13QGraphicsItem@Qt_5 5.10.1
 _ZN8QtCharts18ChartCategoryAxisXD0Ev@Qt_5 5.10.1
 _ZN8QtCharts18ChartCategoryAxisXD1Ev@Qt_5 5.10.1
 _ZN8QtCharts18ChartCategoryAxisXD2Ev@Qt_5 5.10.1
 _ZN8QtCharts18ChartCategoryAxisY11qt_metacallEN11QMetaObject4CallEiPPv@Qt_5 5.10.1
 _ZN8QtCharts18ChartCategoryAxisY11qt_metacastEPKc@Qt_5 5.10.1
 _ZN8QtCharts18ChartCategoryAxisY14updateGeometryEv@Qt_5 5.10.1
 _ZN8QtCharts18ChartCategoryAxisY16staticMetaObjectE@Qt_5 5.10.1
 _ZN8QtCharts18ChartCategoryAxisY23handleCategoriesChangedEv@Qt_5 5.10.1
 _ZN8QtCharts18ChartCategoryAxisYC1EPNS_13QCategoryAxisEP13QGraphicsItem@Qt_5 5.10.1
 _ZN8QtCharts18ChartCategoryAxisYC2EPNS_13QCategoryAxisEP13QGraphicsItem@Qt_5 5.10.1
 _ZN8QtCharts18ChartCategoryAxisYD0Ev@Qt_5 5.10.1
 _ZN8QtCharts18ChartCategoryAxisYD1Ev@Qt_5 5.10.1
 _ZN8QtCharts18ChartCategoryAxisYD2Ev@Qt_5 5.10.1
 _ZN8QtCharts18ChartDateTimeAxisX11qt_metacallEN11QMetaObject4CallEiPPv@Qt_5 5.10.1
 _ZN8QtCharts18ChartDateTimeAxisX11qt_metacastEPKc@Qt_5 5.10.1
 _ZN8QtCharts18ChartDateTimeAxisX14updateGeometryEv@Qt_5 5.10.1
 _ZN8QtCharts18ChartDateTimeAxisX16staticMetaObjectE@Qt_5 5.10.1
 _ZN8QtCharts18ChartDateTimeAxisX19handleFormatChangedERK7QString@Qt_5 5.10.1
 _ZN8QtCharts18ChartDateTimeAxisX22handleTickCountChangedEi@Qt_5 5.10.1
 _ZN8QtCharts18ChartDateTimeAxisXC1EPNS_13QDateTimeAxisEP13QGraphicsItem@Qt_5 5.10.1
 _ZN8QtCharts18ChartDateTimeAxisXC2EPNS_13QDateTimeAxisEP13QGraphicsItem@Qt_5 5.10.1
 _ZN8QtCharts18ChartDateTimeAxisXD0Ev@Qt_5 5.10.1
 _ZN8QtCharts18ChartDateTimeAxisXD1Ev@Qt_5 5.10.1
 _ZN8QtCharts18ChartDateTimeAxisXD2Ev@Qt_5 5.10.1
 _ZN8QtCharts18ChartDateTimeAxisY11qt_metacallEN11QMetaObject4CallEiPPv@Qt_5 5.10.1
 _ZN8QtCharts18ChartDateTimeAxisY11qt_metacastEPKc@Qt_5 5.10.1
 _ZN8QtCharts18ChartDateTimeAxisY14updateGeometryEv@Qt_5 5.10.1
 _ZN8QtCharts18ChartDateTimeAxisY16staticMetaObjectE@Qt_5 5.10.1
 _ZN8QtCharts18ChartDateTimeAxisY19handleFormatChangedERK7QString@Qt_5 5.10.1
 _ZN8QtCharts18ChartDateTimeAxisY22handleTickCountChangedEi@Qt_5 5.10.1
 _ZN8QtCharts18ChartDateTimeAxisYC1EPNS_13QDateTimeAxisEP13QGraphicsItem@Qt_5 5.10.1
 _ZN8QtCharts18ChartDateTimeAxisYC2EPNS_13QDateTimeAxisEP13QGraphicsItem@Qt_5 5.10.1
 _ZN8QtCharts18ChartDateTimeAxisYD0Ev@Qt_5 5.10.1
 _ZN8QtCharts18ChartDateTimeAxisYD1Ev@Qt_5 5.10.1
 _ZN8QtCharts18ChartDateTimeAxisYD2Ev@Qt_5 5.10.1
 _ZN8QtCharts18ChartLogValueAxisX11qt_metacallEN11QMetaObject4CallEiPPv@Qt_5 5.10.1
 _ZN8QtCharts18ChartLogValueAxisX11qt_metacastEPKc@Qt_5 5.10.1
 _ZN8QtCharts18ChartLogValueAxisX14updateGeometryEv@Qt_5 5.10.1
 _ZN8QtCharts18ChartLogValueAxisX16staticMetaObjectE@Qt_5 5.10.1
 _ZN8QtCharts18ChartLogValueAxisX17handleBaseChangedEd@Qt_5 5.10.1
 _ZN8QtCharts18ChartLogValueAxisX24handleLabelFormatChangedERK7QString@Qt_5 5.10.1
 _ZN8QtCharts18ChartLogValueAxisXC1EPNS_13QLogValueAxisEP13QGraphicsItem@Qt_5 5.10.1
 _ZN8QtCharts18ChartLogValueAxisXC2EPNS_13QLogValueAxisEP13QGraphicsItem@Qt_5 5.10.1
 _ZN8QtCharts18ChartLogValueAxisXD0Ev@Qt_5 5.10.1
 _ZN8QtCharts18ChartLogValueAxisXD1Ev@Qt_5 5.10.1
 _ZN8QtCharts18ChartLogValueAxisXD2Ev@Qt_5 5.10.1
 _ZN8QtCharts18ChartLogValueAxisY11qt_metacallEN11QMetaObject4CallEiPPv@Qt_5 5.10.1
 _ZN8QtCharts18ChartLogValueAxisY11qt_metacastEPKc@Qt_5 5.10.1
 _ZN8QtCharts18ChartLogValueAxisY14updateGeometryEv@Qt_5 5.10.1
 _ZN8QtCharts18ChartLogValueAxisY16staticMetaObjectE@Qt_5 5.10.1
 _ZN8QtCharts18ChartLogValueAxisY17handleBaseChangedEd@Qt_5 5.10.1
 _ZN8QtCharts18ChartLogValueAxisY24handleLabelFormatChangedERK7QString@Qt_5 5.10.1
 _ZN8QtCharts18ChartLogValueAxisYC1EPNS_13QLogValueAxisEP13QGraphicsItem@Qt_5 5.10.1
 _ZN8QtCharts18ChartLogValueAxisYC2EPNS_13QLogValueAxisEP13QGraphicsItem@Qt_5 5.10.1
 _ZN8QtCharts18ChartLogValueAxisYD0Ev@Qt_5 5.10.1
 _ZN8QtCharts18ChartLogValueAxisYD1Ev@Qt_5 5.10.1
 _ZN8QtCharts18ChartLogValueAxisYD2Ev@Qt_5 5.10.1
 _ZN8QtCharts18QAbstractBarSeries11qt_metacallEN11QMetaObject4CallEiPPv@Qt_5 5.7.1
 _ZN8QtCharts18QAbstractBarSeries11qt_metacastEPKc@Qt_5 5.7.1
 _ZN8QtCharts18QAbstractBarSeries11setBarWidthEd@Qt_5 5.7.1
 _ZN8QtCharts18QAbstractBarSeries12barsetsAddedE5QListIPNS_7QBarSetEE@Qt_5 5.7.1
 _ZN8QtCharts18QAbstractBarSeries12countChangedEv@Qt_5 5.7.1
 _ZN8QtCharts18QAbstractBarSeries13doubleClickedEiPNS_7QBarSetE@Qt_5 5.7.1
 _ZN8QtCharts18QAbstractBarSeries14barsetsRemovedE5QListIPNS_7QBarSetEE@Qt_5 5.7.1
 _ZN8QtCharts18QAbstractBarSeries14setLabelsAngleEd@Qt_5 5.7.1
 _ZN8QtCharts18QAbstractBarSeries15setLabelsFormatERK7QString@Qt_5 5.7.1
 _ZN8QtCharts18QAbstractBarSeries16setLabelsVisibleEb@Qt_5 5.7.1
 _ZN8QtCharts18QAbstractBarSeries16staticMetaObjectE@Qt_5 5.7.1
 _ZN8QtCharts18QAbstractBarSeries17setLabelsPositionENS0_14LabelsPositionE@Qt_5 5.7.1
 _ZN8QtCharts18QAbstractBarSeries18labelsAngleChangedEd@Qt_5 5.7.1
 _ZN8QtCharts18QAbstractBarSeries18setLabelsPrecisionEi@Qt_5 5.11.1
 _ZN8QtCharts18QAbstractBarSeries19labelsFormatChangedERK7QString@Qt_5 5.7.1
 _ZN8QtCharts18QAbstractBarSeries20labelsVisibleChangedEv@Qt_5 5.7.1
 _ZN8QtCharts18QAbstractBarSeries21labelsPositionChangedENS0_14LabelsPositionE@Qt_5 5.7.1
 _ZN8QtCharts18QAbstractBarSeries22labelsPrecisionChangedEi@Qt_5 5.11.1
 _ZN8QtCharts18QAbstractBarSeries4takeEPNS_7QBarSetE@Qt_5 5.7.1
 _ZN8QtCharts18QAbstractBarSeries5clearEv@Qt_5 5.7.1
 _ZN8QtCharts18QAbstractBarSeries6appendE5QListIPNS_7QBarSetEE@Qt_5 5.7.1
 _ZN8QtCharts18QAbstractBarSeries6appendEPNS_7QBarSetE@Qt_5 5.7.1
 _ZN8QtCharts18QAbstractBarSeries6insertEiPNS_7QBarSetE@Qt_5 5.7.1
 _ZN8QtCharts18QAbstractBarSeries6removeEPNS_7QBarSetE@Qt_5 5.7.1
 _ZN8QtCharts18QAbstractBarSeries7clickedEiPNS_7QBarSetE@Qt_5 5.7.1
 _ZN8QtCharts18QAbstractBarSeries7hoveredEbiPNS_7QBarSetE@Qt_5 5.7.1
 _ZN8QtCharts18QAbstractBarSeries7pressedEiPNS_7QBarSetE@Qt_5 5.7.1
 _ZN8QtCharts18QAbstractBarSeries8releasedEiPNS_7QBarSetE@Qt_5 5.7.1
 _ZN8QtCharts18QAbstractBarSeriesC1ERNS_25QAbstractBarSeriesPrivateEP7QObject@Qt_5 5.7.1
 _ZN8QtCharts18QAbstractBarSeriesC2ERNS_25QAbstractBarSeriesPrivateEP7QObject@Qt_5 5.7.1
 _ZN8QtCharts18QAbstractBarSeriesD0Ev@Qt_5 5.7.1
 _ZN8QtCharts18QAbstractBarSeriesD1Ev@Qt_5 5.7.1
 _ZN8QtCharts18QAbstractBarSeriesD2Ev@Qt_5 5.7.1
 _ZN8QtCharts18QAreaSeriesPrivate11qt_metacallEN11QMetaObject4CallEiPPv@Qt_5 5.10.1
 _ZN8QtCharts18QAreaSeriesPrivate11qt_metacastEPKc@Qt_5 5.10.1
 _ZN8QtCharts18QAreaSeriesPrivate14initializeAxesEv@Qt_5 5.10.1
 _ZN8QtCharts18QAreaSeriesPrivate15initializeThemeEiPNS_10ChartThemeEb@Qt_5 5.10.1
 _ZN8QtCharts18QAreaSeriesPrivate16initializeDomainEv@Qt_5 5.10.1
 _ZN8QtCharts18QAreaSeriesPrivate16staticMetaObjectE@Qt_5 5.10.1
 _ZN8QtCharts18QAreaSeriesPrivate18initializeGraphicsEP13QGraphicsItem@Qt_5 5.10.1
 _ZN8QtCharts18QAreaSeriesPrivate19createLegendMarkersEPNS_7QLegendE@Qt_5 5.10.1
 _ZN8QtCharts18QAreaSeriesPrivate20initializeAnimationsE6QFlagsINS_6QChart15AnimationOptionEEiR12QEasingCurve@Qt_5 5.10.1
 _ZN8QtCharts18QAreaSeriesPrivate7updatedEv@Qt_5 5.10.1
 _ZN8QtCharts18QAreaSeriesPrivateC1EPNS_11QLineSeriesES2_PNS_11QAreaSeriesE@Qt_5 5.10.1
 _ZN8QtCharts18QAreaSeriesPrivateC2EPNS_11QLineSeriesES2_PNS_11QAreaSeriesE@Qt_5 5.10.1
 _ZN8QtCharts18QCandlestickSeries10penChangedEv@Qt_5 5.9.0~rc
 _ZN8QtCharts18QCandlestickSeries11qt_metacallEN11QMetaObject4CallEiPPv@Qt_5 5.9.0~rc
 _ZN8QtCharts18QCandlestickSeries11qt_metacastEPKc@Qt_5 5.9.0~rc
 _ZN8QtCharts18QCandlestickSeries12brushChangedEv@Qt_5 5.9.0~rc
 _ZN8QtCharts18QCandlestickSeries12countChangedEv@Qt_5 5.9.0~rc
 _ZN8QtCharts18QCandlestickSeries12setBodyWidthEd@Qt_5 5.9.0~rc
 _ZN8QtCharts18QCandlestickSeries12setCapsWidthEd@Qt_5 5.9.0~rc
 _ZN8QtCharts18QCandlestickSeries13doubleClickedEPNS_15QCandlestickSetE@Qt_5 5.9.0~rc
 _ZN8QtCharts18QCandlestickSeries14setCapsVisibleEb@Qt_5 5.9.0~rc
 _ZN8QtCharts18QCandlestickSeries16bodyWidthChangedEv@Qt_5 5.9.0~rc
 _ZN8QtCharts18QCandlestickSeries16capsWidthChangedEv@Qt_5 5.9.0~rc
 _ZN8QtCharts18QCandlestickSeries16staticMetaObjectE@Qt_5 5.9.0~rc
 _ZN8QtCharts18QCandlestickSeries18setDecreasingColorERK6QColor@Qt_5 5.9.0~rc
 _ZN8QtCharts18QCandlestickSeries18setIncreasingColorERK6QColor@Qt_5 5.9.0~rc
 _ZN8QtCharts18QCandlestickSeries20candlestickSetsAddedERK5QListIPNS_15QCandlestickSetEE@Qt_5 5.9.0~rc
 _ZN8QtCharts18QCandlestickSeries21capsVisibilityChangedEv@Qt_5 5.9.0~rc
 _ZN8QtCharts18QCandlestickSeries21setBodyOutlineVisibleEb@Qt_5 5.9.0~rc
 _ZN8QtCharts18QCandlestickSeries21setMaximumColumnWidthEd@Qt_5 5.9.0~rc
 _ZN8QtCharts18QCandlestickSeries21setMinimumColumnWidthEd@Qt_5 5.9.0~rc
 _ZN8QtCharts18QCandlestickSeries22candlestickSetsRemovedERK5QListIPNS_15QCandlestickSetEE@Qt_5 5.9.0~rc
 _ZN8QtCharts18QCandlestickSeries22decreasingColorChangedEv@Qt_5 5.9.0~rc
 _ZN8QtCharts18QCandlestickSeries22increasingColorChangedEv@Qt_5 5.9.0~rc
 _ZN8QtCharts18QCandlestickSeries25maximumColumnWidthChangedEv@Qt_5 5.9.0~rc
 _ZN8QtCharts18QCandlestickSeries25minimumColumnWidthChangedEv@Qt_5 5.9.0~rc
 _ZN8QtCharts18QCandlestickSeries28bodyOutlineVisibilityChangedEv@Qt_5 5.9.0~rc
 _ZN8QtCharts18QCandlestickSeries4takeEPNS_15QCandlestickSetE@Qt_5 5.9.0~rc
 _ZN8QtCharts18QCandlestickSeries5clearEv@Qt_5 5.9.0~rc
 _ZN8QtCharts18QCandlestickSeries6appendEPNS_15QCandlestickSetE@Qt_5 5.9.0~rc
 _ZN8QtCharts18QCandlestickSeries6appendERK5QListIPNS_15QCandlestickSetEE@Qt_5 5.9.0~rc
 _ZN8QtCharts18QCandlestickSeries6insertEiPNS_15QCandlestickSetE@Qt_5 5.9.0~rc
 _ZN8QtCharts18QCandlestickSeries6removeEPNS_15QCandlestickSetE@Qt_5 5.9.0~rc
 _ZN8QtCharts18QCandlestickSeries6removeERK5QListIPNS_15QCandlestickSetEE@Qt_5 5.9.0~rc
 _ZN8QtCharts18QCandlestickSeries6setPenERK4QPen@Qt_5 5.9.0~rc
 _ZN8QtCharts18QCandlestickSeries7clickedEPNS_15QCandlestickSetE@Qt_5 5.9.0~rc
 _ZN8QtCharts18QCandlestickSeries7hoveredEbPNS_15QCandlestickSetE@Qt_5 5.9.0~rc
 _ZN8QtCharts18QCandlestickSeries7pressedEPNS_15QCandlestickSetE@Qt_5 5.9.0~rc
 _ZN8QtCharts18QCandlestickSeries8releasedEPNS_15QCandlestickSetE@Qt_5 5.9.0~rc
 _ZN8QtCharts18QCandlestickSeries8setBrushERK6QBrush@Qt_5 5.9.0~rc
 _ZN8QtCharts18QCandlestickSeriesC1EP7QObject@Qt_5 5.9.0~rc
 _ZN8QtCharts18QCandlestickSeriesC2EP7QObject@Qt_5 5.9.0~rc
 _ZN8QtCharts18QCandlestickSeriesD0Ev@Qt_5 5.9.0~rc
 _ZN8QtCharts18QCandlestickSeriesD1Ev@Qt_5 5.9.0~rc
 _ZN8QtCharts18QCandlestickSeriesD2Ev@Qt_5 5.9.0~rc
 _ZN8QtCharts18QLineSeriesPrivate15initializeThemeEiPNS_10ChartThemeEb@Qt_5 5.10.1
 _ZN8QtCharts18QLineSeriesPrivate18initializeGraphicsEP13QGraphicsItem@Qt_5 5.10.1
 _ZN8QtCharts18QLineSeriesPrivateC1EPNS_11QLineSeriesE@Qt_5 5.10.1
 _ZN8QtCharts18QLineSeriesPrivateC2EPNS_11QLineSeriesE@Qt_5 5.10.1
 _ZN8QtCharts19AbstractChartLayout10setMarginsERK8QMargins@Qt_5 5.10.1
 _ZN8QtCharts19AbstractChartLayout11setGeometryERK6QRectF@Qt_5 5.10.1
 _ZN8QtCharts19AbstractChartLayoutC1EPNS_14ChartPresenterE@Qt_5 5.10.1
 _ZN8QtCharts19AbstractChartLayoutC2EPNS_14ChartPresenterE@Qt_5 5.10.1
 _ZN8QtCharts19AbstractChartLayoutD0Ev@Qt_5 5.10.1
 _ZN8QtCharts19AbstractChartLayoutD1Ev@Qt_5 5.10.1
 _ZN8QtCharts19AbstractChartLayoutD2Ev@Qt_5 5.10.1
 _ZN8QtCharts19LogXLogYPolarDomain10attachAxisEPNS_13QAbstractAxisE@Qt_5 5.10.1
 _ZN8QtCharts19LogXLogYPolarDomain10detachAxisEPNS_13QAbstractAxisE@Qt_5 5.10.1
 _ZN8QtCharts19LogXLogYPolarDomain11qt_metacallEN11QMetaObject4CallEiPPv@Qt_5 5.10.1
 _ZN8QtCharts19LogXLogYPolarDomain11qt_metacastEPKc@Qt_5 5.10.1
 _ZN8QtCharts19LogXLogYPolarDomain16staticMetaObjectE@Qt_5 5.10.1
 _ZN8QtCharts19LogXLogYPolarDomain29handleVerticalAxisBaseChangedEd@Qt_5 5.10.1
 _ZN8QtCharts19LogXLogYPolarDomain31handleHorizontalAxisBaseChangedEd@Qt_5 5.10.1
 _ZN8QtCharts19LogXLogYPolarDomain4moveEdd@Qt_5 5.10.1
 _ZN8QtCharts19LogXLogYPolarDomain6zoomInERK6QRectF@Qt_5 5.10.1
 _ZN8QtCharts19LogXLogYPolarDomain7zoomOutERK6QRectF@Qt_5 5.10.1
 _ZN8QtCharts19LogXLogYPolarDomain8setRangeEdddd@Qt_5 5.10.1
 _ZN8QtCharts19LogXLogYPolarDomainC1EP7QObject@Qt_5 5.10.1
 _ZN8QtCharts19LogXLogYPolarDomainC2EP7QObject@Qt_5 5.10.1
 _ZN8QtCharts19LogXLogYPolarDomainD0Ev@Qt_5 5.10.1
 _ZN8QtCharts19LogXLogYPolarDomainD1Ev@Qt_5 5.10.1
 _ZN8QtCharts19LogXLogYPolarDomainD2Ev@Qt_5 5.10.1
 _ZN8QtCharts19PercentBarChartItem11qt_metacallEN11QMetaObject4CallEiPPv@Qt_5 5.10.1
 _ZN8QtCharts19PercentBarChartItem11qt_metacastEPKc@Qt_5 5.10.1
 _ZN8QtCharts19PercentBarChartItem12topLeftPointEidd@Qt_5 5.10.1
 _ZN8QtCharts19PercentBarChartItem14positionLabelsEv@Qt_5 5.10.1
 _ZN8QtCharts19PercentBarChartItem15calculateLayoutEv@Qt_5 5.10.1
 _ZN8QtCharts19PercentBarChartItem15markLabelsDirtyEPNS_7QBarSetEii@Qt_5 5.10.1
 _ZN8QtCharts19PercentBarChartItem16bottomRightPointEidd@Qt_5 5.10.1
 _ZN8QtCharts19PercentBarChartItem16initializeLayoutEiiib@Qt_5 5.10.1
 _ZN8QtCharts19PercentBarChartItem16staticMetaObjectE@Qt_5 5.10.1
 _ZN8QtCharts19PercentBarChartItem17generateLabelTextEiid@Qt_5 5.10.1
 _ZN8QtCharts19PercentBarChartItem27handleLabelsPositionChangedEv@Qt_5 5.10.1
 _ZN8QtCharts19PercentBarChartItemC1EPNS_18QAbstractBarSeriesEP13QGraphicsItem@Qt_5 5.10.1
 _ZN8QtCharts19PercentBarChartItemC2EPNS_18QAbstractBarSeriesEP13QGraphicsItem@Qt_5 5.10.1
 _ZN8QtCharts19QBoxPlotModelMapper11qt_metacallEN11QMetaObject4CallEiPPv@Qt_5 5.7.1
 _ZN8QtCharts19QBoxPlotModelMapper11qt_metacastEPKc@Qt_5 5.7.1
 _ZN8QtCharts19QBoxPlotModelMapper14setOrientationEN2Qt11OrientationE@Qt_5 5.7.1
 _ZN8QtCharts19QBoxPlotModelMapper16staticMetaObjectE@Qt_5 5.7.1
 _ZN8QtCharts19QBoxPlotModelMapper20setLastBoxSetSectionEi@Qt_5 5.7.1
 _ZN8QtCharts19QBoxPlotModelMapper21setFirstBoxSetSectionEi@Qt_5 5.7.1
 _ZN8QtCharts19QBoxPlotModelMapper8setCountEi@Qt_5 5.7.1
 _ZN8QtCharts19QBoxPlotModelMapper8setFirstEi@Qt_5 5.7.1
 _ZN8QtCharts19QBoxPlotModelMapper8setModelEP18QAbstractItemModel@Qt_5 5.7.1
 _ZN8QtCharts19QBoxPlotModelMapper9setSeriesEPNS_14QBoxPlotSeriesE@Qt_5 5.7.1
 _ZN8QtCharts19QBoxPlotModelMapperC1EP7QObject@Qt_5 5.7.1
 _ZN8QtCharts19QBoxPlotModelMapperC2EP7QObject@Qt_5 5.7.1
 _ZN8QtCharts19StackedBarChartItem11qt_metacallEN11QMetaObject4CallEiPPv@Qt_5 5.10.1
 _ZN8QtCharts19StackedBarChartItem11qt_metacastEPKc@Qt_5 5.10.1
 _ZN8QtCharts19StackedBarChartItem12topLeftPointEidd@Qt_5 5.10.1
 _ZN8QtCharts19StackedBarChartItem14positionLabelsEv@Qt_5 5.10.1
 _ZN8QtCharts19StackedBarChartItem15calculateLayoutEv@Qt_5 5.10.1
 _ZN8QtCharts19StackedBarChartItem16bottomRightPointEidd@Qt_5 5.10.1
 _ZN8QtCharts19StackedBarChartItem16initializeLayoutEiiib@Qt_5 5.10.1
 _ZN8QtCharts19StackedBarChartItem16staticMetaObjectE@Qt_5 5.10.1
 _ZN8QtCharts19StackedBarChartItem27handleLabelsPositionChangedEv@Qt_5 5.10.1
 _ZN8QtCharts19StackedBarChartItemC1EPNS_18QAbstractBarSeriesEP13QGraphicsItem@Qt_5 5.10.1
 _ZN8QtCharts19StackedBarChartItemC2EPNS_18QAbstractBarSeriesEP13QGraphicsItem@Qt_5 5.10.1
 _ZN8QtCharts20AbstractBarChartItem11applyLayoutERK7QVectorI6QRectFE@Qt_5 5.10.1
 _ZN8QtCharts20AbstractBarChartItem11qt_metacallEN11QMetaObject4CallEiPPv@Qt_5 5.10.1
 _ZN8QtCharts20AbstractBarChartItem11qt_metacastEPKc@Qt_5 5.10.1
 _ZN8QtCharts20AbstractBarChartItem12setAnimationEPNS_12BarAnimationE@Qt_5 5.10.1
 _ZN8QtCharts20AbstractBarChartItem14positionLabelsEv@Qt_5 5.10.1
 _ZN8QtCharts20AbstractBarChartItem14resetAnimationEv@Qt_5 5.10.1
 _ZN8QtCharts20AbstractBarChartItem14updateBarItemsEv@Qt_5 5.10.1
 _ZN8QtCharts20AbstractBarChartItem15markLabelsDirtyEPNS_7QBarSetEii@Qt_5 5.10.1
 _ZN8QtCharts20AbstractBarChartItem16createLabelItemsEv@Qt_5 5.10.1
 _ZN8QtCharts20AbstractBarChartItem16staticMetaObjectE@Qt_5 5.10.1
 _ZN8QtCharts20AbstractBarChartItem17generateLabelTextEiid@Qt_5 5.10.1
 _ZN8QtCharts20AbstractBarChartItem17handleBarValueAddEiiPNS_7QBarSetE@Qt_5 5.10.1
 _ZN8QtCharts20AbstractBarChartItem17handleSeriesAddedEPNS_15QAbstractSeriesE@Qt_5 5.10.1
 _ZN8QtCharts20AbstractBarChartItem17handleUpdatedBarsEv@Qt_5 5.10.1
 _ZN8QtCharts20AbstractBarChartItem19handleDomainUpdatedEv@Qt_5 5.10.1
 _ZN8QtCharts20AbstractBarChartItem19handleLayoutChangedEv@Qt_5 5.10.1
 _ZN8QtCharts20AbstractBarChartItem19handleSeriesRemovedEPNS_15QAbstractSeriesE@Qt_5 5.10.1
 _ZN8QtCharts20AbstractBarChartItem20handleBarValueChangeEiPNS_7QBarSetE@Qt_5 5.10.1
 _ZN8QtCharts20AbstractBarChartItem20handleBarValueRemoveEiiPNS_7QBarSetE@Qt_5 5.10.1
 _ZN8QtCharts20AbstractBarChartItem20handleOpacityChangedEv@Qt_5 5.10.1
 _ZN8QtCharts20AbstractBarChartItem20handleVisibleChangedEv@Qt_5 5.10.1
 _ZN8QtCharts20AbstractBarChartItem20initializeFullLayoutEv@Qt_5 5.10.1
 _ZN8QtCharts20AbstractBarChartItem22positionLabelsVerticalEv@Qt_5 5.10.1
 _ZN8QtCharts20AbstractBarChartItem24handleSetStructureChangeEv@Qt_5 5.10.1
 _ZN8QtCharts20AbstractBarChartItem26handleDataStructureChangedEv@Qt_5 5.10.1
 _ZN8QtCharts20AbstractBarChartItem26handleLabelsVisibleChangedEb@Qt_5 5.10.1
 _ZN8QtCharts20AbstractBarChartItem27handleLabelsPositionChangedEv@Qt_5 5.10.1
 _ZN8QtCharts20AbstractBarChartItem41calculateSeriesPositionAdjustmentAndWidthEv@Qt_5 5.10.1
 _ZN8QtCharts20AbstractBarChartItem5paintEP8QPainterPK24QStyleOptionGraphicsItemP7QWidget@Qt_5 5.10.1
 _ZN8QtCharts20AbstractBarChartItem9setLayoutERK7QVectorI6QRectFE@Qt_5 5.10.1
 _ZN8QtCharts20AbstractBarChartItemC1EPNS_18QAbstractBarSeriesEP13QGraphicsItem@Qt_5 5.10.1
 _ZN8QtCharts20AbstractBarChartItemC2EPNS_18QAbstractBarSeriesEP13QGraphicsItem@Qt_5 5.10.1
 _ZN8QtCharts20AbstractBarChartItemD0Ev@Qt_5 5.10.1
 _ZN8QtCharts20AbstractBarChartItemD1Ev@Qt_5 5.10.1
 _ZN8QtCharts20AbstractBarChartItemD2Ev@Qt_5 5.10.1
 _ZN8QtCharts20BoxWhiskersAnimation10setEndDataERKNS_15BoxWhiskersDataE@Qt_5 5.10.1
 _ZN8QtCharts20BoxWhiskersAnimation11qt_metacallEN11QMetaObject4CallEiPPv@Qt_5 5.10.1
 _ZN8QtCharts20BoxWhiskersAnimation11qt_metacastEPKc@Qt_5 5.10.1
 _ZN8QtCharts20BoxWhiskersAnimation12setStartDataERKNS_15BoxWhiskersDataE@Qt_5 5.10.1
 _ZN8QtCharts20BoxWhiskersAnimation16staticMetaObjectE@Qt_5 5.10.1
 _ZN8QtCharts20BoxWhiskersAnimation18updateCurrentValueERK8QVariant@Qt_5 5.10.1
 _ZN8QtCharts20BoxWhiskersAnimation5setupERKNS_15BoxWhiskersDataES3_@Qt_5 5.10.1
 _ZN8QtCharts20BoxWhiskersAnimationC1EPNS_11BoxWhiskersEPNS_16BoxPlotAnimationEiR12QEasingCurve@Qt_5 5.10.1
 _ZN8QtCharts20BoxWhiskersAnimationC2EPNS_11BoxWhiskersEPNS_16BoxPlotAnimationEiR12QEasingCurve@Qt_5 5.10.1
 _ZN8QtCharts20BoxWhiskersAnimationD0Ev@Qt_5 5.10.1
 _ZN8QtCharts20BoxWhiskersAnimationD1Ev@Qt_5 5.10.1
 _ZN8QtCharts20BoxWhiskersAnimationD2Ev@Qt_5 5.10.1
 _ZN8QtCharts20CandlestickAnimation11qt_metacallEN11QMetaObject4CallEiPPv@Qt_5 5.10.1
 _ZN8QtCharts20CandlestickAnimation11qt_metacastEPKc@Qt_5 5.10.1
 _ZN8QtCharts20CandlestickAnimation14addCandlestickEPNS_11CandlestickE@Qt_5 5.10.1
 _ZN8QtCharts20CandlestickAnimation16staticMetaObjectE@Qt_5 5.10.1
 _ZN8QtCharts20CandlestickAnimation17setAnimationStartEPNS_11CandlestickE@Qt_5 5.10.1
 _ZN8QtCharts20CandlestickAnimation20candlestickAnimationEPNS_11CandlestickE@Qt_5 5.10.1
 _ZN8QtCharts20CandlestickAnimation26candlestickChangeAnimationEPNS_11CandlestickE@Qt_5 5.10.1
 _ZN8QtCharts20CandlestickAnimation26removeCandlestickAnimationEPNS_11CandlestickE@Qt_5 5.10.1
 _ZN8QtCharts20CandlestickAnimation7stopAllEv@Qt_5 5.10.1
 _ZN8QtCharts20CandlestickAnimationC1EPNS_20CandlestickChartItemEiR12QEasingCurve@Qt_5 5.10.1
 _ZN8QtCharts20CandlestickAnimationC2EPNS_20CandlestickChartItemEiR12QEasingCurve@Qt_5 5.10.1
 _ZN8QtCharts20CandlestickAnimationD0Ev@Qt_5 5.10.1
 _ZN8QtCharts20CandlestickAnimationD1Ev@Qt_5 5.10.1
 _ZN8QtCharts20CandlestickAnimationD2Ev@Qt_5 5.10.1
 _ZN8QtCharts20CandlestickChartItem11qt_metacallEN11QMetaObject4CallEiPPv@Qt_5 5.10.1
 _ZN8QtCharts20CandlestickChartItem11qt_metacastEPKc@Qt_5 5.10.1
 _ZN8QtCharts20CandlestickChartItem12addTimestampEd@Qt_5 5.10.1
 _ZN8QtCharts20CandlestickChartItem12setAnimationEPNS_20CandlestickAnimationE@Qt_5 5.10.1
 _ZN8QtCharts20CandlestickChartItem15removeTimestampEd@Qt_5 5.10.1
 _ZN8QtCharts20CandlestickChartItem16staticMetaObjectE@Qt_5 5.10.1
 _ZN8QtCharts20CandlestickChartItem16updateTimePeriodEv@Qt_5 5.10.1
 _ZN8QtCharts20CandlestickChartItem19handleDomainUpdatedEv@Qt_5 5.10.1
 _ZN8QtCharts20CandlestickChartItem19handleLayoutUpdatedEv@Qt_5 5.10.1
 _ZN8QtCharts20CandlestickChartItem24handleCandlestickSetsAddERK5QListIPNS_15QCandlestickSetEE@Qt_5 5.10.1
 _ZN8QtCharts20CandlestickChartItem25handleCandlesticksUpdatedEv@Qt_5 5.10.1
 _ZN8QtCharts20CandlestickChartItem25updateCandlestickGeometryEPNS_11CandlestickEi@Qt_5 5.10.1
 _ZN8QtCharts20CandlestickChartItem26handleDataStructureChangedEv@Qt_5 5.10.1
 _ZN8QtCharts20CandlestickChartItem27handleCandlestickSetsRemoveERK5QListIPNS_15QCandlestickSetEE@Qt_5 5.10.1
 _ZN8QtCharts20CandlestickChartItem27updateCandlestickAppearanceEPNS_11CandlestickEPNS_15QCandlestickSetE@Qt_5 5.10.1
 _ZN8QtCharts20CandlestickChartItem29handleCandlestickSeriesChangeEv@Qt_5 5.10.1
 _ZN8QtCharts20CandlestickChartItem5paintEP8QPainterPK24QStyleOptionGraphicsItemP7QWidget@Qt_5 5.10.1
 _ZN8QtCharts20CandlestickChartItemC1EPNS_18QCandlestickSeriesEP13QGraphicsItem@Qt_5 5.10.1
 _ZN8QtCharts20CandlestickChartItemC2EPNS_18QCandlestickSeriesEP13QGraphicsItem@Qt_5 5.10.1
 _ZN8QtCharts20CandlestickChartItemD0Ev@Qt_5 5.10.1
 _ZN8QtCharts20CandlestickChartItemD1Ev@Qt_5 5.10.1
 _ZN8QtCharts20CandlestickChartItemD2Ev@Qt_5 5.10.1
 _ZN8QtCharts20CartesianChartLayoutC1EPNS_14ChartPresenterE@Qt_5 5.10.1
 _ZN8QtCharts20CartesianChartLayoutC2EPNS_14ChartPresenterE@Qt_5 5.10.1
 _ZN8QtCharts20CartesianChartLayoutD0Ev@Qt_5 5.10.1
 _ZN8QtCharts20CartesianChartLayoutD1Ev@Qt_5 5.10.1
 _ZN8QtCharts20CartesianChartLayoutD2Ev@Qt_5 5.10.1
 _ZN8QtCharts20PolarChartAxisRadial11createItemsEi@Qt_5 5.10.1
 _ZN8QtCharts20PolarChartAxisRadial11qt_metacallEN11QMetaObject4CallEiPPv@Qt_5 5.10.1
 _ZN8QtCharts20PolarChartAxisRadial11qt_metacastEPKc@Qt_5 5.10.1
 _ZN8QtCharts20PolarChartAxisRadial14updateGeometryEv@Qt_5 5.10.1
 _ZN8QtCharts20PolarChartAxisRadial16staticMetaObjectE@Qt_5 5.10.1
 _ZN8QtCharts20PolarChartAxisRadial19preferredAxisRadiusERK6QSizeF@Qt_5 5.10.1
 _ZN8QtCharts20PolarChartAxisRadial20handleGridPenChangedERK4QPen@Qt_5 5.10.1
 _ZN8QtCharts20PolarChartAxisRadial20updateMinorTickItemsEv@Qt_5 5.10.1
 _ZN8QtCharts20PolarChartAxisRadial21handleArrowPenChangedERK4QPen@Qt_5 5.10.1
 _ZN8QtCharts20PolarChartAxisRadial23updateMinorTickGeometryEv@Qt_5 5.10.1
 _ZN8QtCharts20PolarChartAxisRadial25handleMinorGridPenChangedERK4QPen@Qt_5 5.10.1
 _ZN8QtCharts20PolarChartAxisRadial26handleGridLineColorChangedERK6QColor@Qt_5 5.10.1
 _ZN8QtCharts20PolarChartAxisRadial26handleMinorArrowPenChangedERK4QPen@Qt_5 5.10.1
 _ZN8QtCharts20PolarChartAxisRadial31handleMinorGridLineColorChangedERK6QColor@Qt_5 5.10.1
 _ZN8QtCharts20PolarChartAxisRadialC1EPNS_13QAbstractAxisEP13QGraphicsItemb@Qt_5 5.10.1
 _ZN8QtCharts20PolarChartAxisRadialC2EPNS_13QAbstractAxisEP13QGraphicsItemb@Qt_5 5.10.1
 _ZN8QtCharts20PolarChartAxisRadialD0Ev@Qt_5 5.10.1
 _ZN8QtCharts20PolarChartAxisRadialD1Ev@Qt_5 5.10.1
 _ZN8QtCharts20PolarChartAxisRadialD2Ev@Qt_5 5.10.1
 _ZN8QtCharts20QAbstractAxisPrivate11qt_metacallEN11QMetaObject4CallEiPPv@Qt_5 5.10.1
 _ZN8QtCharts20QAbstractAxisPrivate11qt_metacastEPKc@Qt_5 5.10.1
 _ZN8QtCharts20QAbstractAxisPrivate12rangeChangedEdd@Qt_5 5.10.1
 _ZN8QtCharts20QAbstractAxisPrivate12setAlignmentE6QFlagsIN2Qt13AlignmentFlagEE@Qt_5 5.10.1
 _ZN8QtCharts20QAbstractAxisPrivate15initializeThemeEPNS_10ChartThemeEb@Qt_5 5.10.1
 _ZN8QtCharts20QAbstractAxisPrivate16staticMetaObjectE@Qt_5 5.10.1
 _ZN8QtCharts20QAbstractAxisPrivate18handleRangeChangedEdd@Qt_5 5.10.1
 _ZN8QtCharts20QAbstractAxisPrivate18initializeGraphicsEP13QGraphicsItem@Qt_5 5.10.1
 _ZN8QtCharts20QAbstractAxisPrivate20initializeAnimationsE6QFlagsINS_6QChart15AnimationOptionEEiR12QEasingCurve@Qt_5 5.10.1
 _ZN8QtCharts20QAbstractAxisPrivateC1EPNS_13QAbstractAxisE@Qt_5 5.10.1
 _ZN8QtCharts20QAbstractAxisPrivateC2EPNS_13QAbstractAxisE@Qt_5 5.10.1
 _ZN8QtCharts20QAbstractAxisPrivateD0Ev@Qt_5 5.10.1
 _ZN8QtCharts20QAbstractAxisPrivateD1Ev@Qt_5 5.10.1
 _ZN8QtCharts20QAbstractAxisPrivateD2Ev@Qt_5 5.10.1
 _ZN8QtCharts20QBoxPlotLegendMarker11qt_metacallEN11QMetaObject4CallEiPPv@Qt_5 5.7.1
 _ZN8QtCharts20QBoxPlotLegendMarker11qt_metacastEPKc@Qt_5 5.7.1
 _ZN8QtCharts20QBoxPlotLegendMarker16staticMetaObjectE@Qt_5 5.7.1
 _ZN8QtCharts20QBoxPlotLegendMarker6seriesEv@Qt_5 5.7.1
 _ZN8QtCharts20QBoxPlotLegendMarkerC1EPNS_14QBoxPlotSeriesEPNS_7QLegendEP7QObject@Qt_5 5.7.1
 _ZN8QtCharts20QBoxPlotLegendMarkerC1ERNS_27QBoxPlotLegendMarkerPrivateEP7QObject@Qt_5 5.7.1
 _ZN8QtCharts20QBoxPlotLegendMarkerC2EPNS_14QBoxPlotSeriesEPNS_7QLegendEP7QObject@Qt_5 5.7.1
 _ZN8QtCharts20QBoxPlotLegendMarkerC2ERNS_27QBoxPlotLegendMarkerPrivateEP7QObject@Qt_5 5.7.1
 _ZN8QtCharts20QBoxPlotLegendMarkerD0Ev@Qt_5 5.7.1
 _ZN8QtCharts20QBoxPlotLegendMarkerD1Ev@Qt_5 5.7.1
 _ZN8QtCharts20QBoxPlotLegendMarkerD2Ev@Qt_5 5.7.1
 _ZN8QtCharts20QCategoryAxisPrivate11qt_metacallEN11QMetaObject4CallEiPPv@Qt_5 5.10.1
 _ZN8QtCharts20QCategoryAxisPrivate11qt_metacastEPKc@Qt_5 5.10.1
 _ZN8QtCharts20QCategoryAxisPrivate16staticMetaObjectE@Qt_5 5.10.1
 _ZN8QtCharts20QCategoryAxisPrivate18initializeGraphicsEP13QGraphicsItem@Qt_5 5.10.1
 _ZN8QtCharts20QCategoryAxisPrivateC1EPNS_13QCategoryAxisE@Qt_5 5.10.1
 _ZN8QtCharts20QCategoryAxisPrivateC2EPNS_13QCategoryAxisE@Qt_5 5.10.1
 _ZN8QtCharts20QCategoryAxisPrivateD0Ev@Qt_5 5.10.1
 _ZN8QtCharts20QCategoryAxisPrivateD1Ev@Qt_5 5.10.1
 _ZN8QtCharts20QCategoryAxisPrivateD2Ev@Qt_5 5.10.1
 _ZN8QtCharts20QDateTimeAxisPrivate11qt_metacallEN11QMetaObject4CallEiPPv@Qt_5 5.10.1
 _ZN8QtCharts20QDateTimeAxisPrivate11qt_metacastEPKc@Qt_5 5.10.1
 _ZN8QtCharts20QDateTimeAxisPrivate16initializeDomainEPNS_14AbstractDomainE@Qt_5 5.10.1
 _ZN8QtCharts20QDateTimeAxisPrivate16staticMetaObjectE@Qt_5 5.10.1
 _ZN8QtCharts20QDateTimeAxisPrivate18initializeGraphicsEP13QGraphicsItem@Qt_5 5.10.1
 _ZN8QtCharts20QDateTimeAxisPrivate6setMaxERK8QVariant@Qt_5 5.10.1
 _ZN8QtCharts20QDateTimeAxisPrivate6setMinERK8QVariant@Qt_5 5.10.1
 _ZN8QtCharts20QDateTimeAxisPrivate8setRangeERK8QVariantS3_@Qt_5 5.10.1
 _ZN8QtCharts20QDateTimeAxisPrivate8setRangeEdd@Qt_5 5.10.1
 _ZN8QtCharts20QDateTimeAxisPrivateC1EPNS_13QDateTimeAxisE@Qt_5 5.10.1
 _ZN8QtCharts20QDateTimeAxisPrivateC2EPNS_13QDateTimeAxisE@Qt_5 5.10.1
 _ZN8QtCharts20QDateTimeAxisPrivateD0Ev@Qt_5 5.10.1
 _ZN8QtCharts20QDateTimeAxisPrivateD1Ev@Qt_5 5.10.1
 _ZN8QtCharts20QDateTimeAxisPrivateD2Ev@Qt_5 5.10.1
 _ZN8QtCharts20QHBoxPlotModelMapper11qt_metacallEN11QMetaObject4CallEiPPv@Qt_5 5.9.0~rc
 _ZN8QtCharts20QHBoxPlotModelMapper11qt_metacastEPKc@Qt_5 5.9.0~rc
 _ZN8QtCharts20QHBoxPlotModelMapper13modelReplacedEv@Qt_5 5.9.0~rc
 _ZN8QtCharts20QHBoxPlotModelMapper14seriesReplacedEv@Qt_5 5.9.0~rc
 _ZN8QtCharts20QHBoxPlotModelMapper14setColumnCountEi@Qt_5 5.9.0~rc
 _ZN8QtCharts20QHBoxPlotModelMapper14setFirstColumnEi@Qt_5 5.9.0~rc
 _ZN8QtCharts20QHBoxPlotModelMapper16setLastBoxSetRowEi@Qt_5 5.9.0~rc
 _ZN8QtCharts20QHBoxPlotModelMapper16staticMetaObjectE@Qt_5 5.9.0~rc
 _ZN8QtCharts20QHBoxPlotModelMapper17setFirstBoxSetRowEi@Qt_5 5.9.0~rc
 _ZN8QtCharts20QHBoxPlotModelMapper18columnCountChangedEv@Qt_5 5.9.0~rc
 _ZN8QtCharts20QHBoxPlotModelMapper18firstColumnChangedEv@Qt_5 5.9.0~rc
 _ZN8QtCharts20QHBoxPlotModelMapper20lastBoxSetRowChangedEv@Qt_5 5.9.0~rc
 _ZN8QtCharts20QHBoxPlotModelMapper21firstBoxSetRowChangedEv@Qt_5 5.9.0~rc
 _ZN8QtCharts20QHBoxPlotModelMapper8setModelEP18QAbstractItemModel@Qt_5 5.9.0~rc
 _ZN8QtCharts20QHBoxPlotModelMapper9setSeriesEPNS_14QBoxPlotSeriesE@Qt_5 5.9.0~rc
 _ZN8QtCharts20QHBoxPlotModelMapperC1EP7QObject@Qt_5 5.9.0~rc
 _ZN8QtCharts20QHBoxPlotModelMapperC2EP7QObject@Qt_5 5.9.0~rc
 _ZN8QtCharts20QHorizontalBarSeries11qt_metacallEN11QMetaObject4CallEiPPv@Qt_5 5.7.1
 _ZN8QtCharts20QHorizontalBarSeries11qt_metacastEPKc@Qt_5 5.7.1
 _ZN8QtCharts20QHorizontalBarSeries16staticMetaObjectE@Qt_5 5.7.1
 _ZN8QtCharts20QHorizontalBarSeriesC1EP7QObject@Qt_5 5.7.1
 _ZN8QtCharts20QHorizontalBarSeriesC2EP7QObject@Qt_5 5.7.1
 _ZN8QtCharts20QHorizontalBarSeriesD0Ev@Qt_5 5.7.1
 _ZN8QtCharts20QHorizontalBarSeriesD1Ev@Qt_5 5.7.1
 _ZN8QtCharts20QHorizontalBarSeriesD2Ev@Qt_5 5.7.1
 _ZN8QtCharts20QLegendMarkerPrivate11qt_metacallEN11QMetaObject4CallEiPPv@Qt_5 5.10.1
 _ZN8QtCharts20QLegendMarkerPrivate11qt_metacastEPKc@Qt_5 5.10.1
 _ZN8QtCharts20QLegendMarkerPrivate16invalidateLegendEv@Qt_5 5.10.1
 _ZN8QtCharts20QLegendMarkerPrivate16staticMetaObjectE@Qt_5 5.10.1
 _ZN8QtCharts20QLegendMarkerPrivate17handleShapeChangeEv@Qt_5 5.10.1
 _ZN8QtCharts20QLegendMarkerPrivate18invalidateAllItemsEv@Qt_5 5.10.1
 _ZN8QtCharts20QLegendMarkerPrivateC1EPNS_13QLegendMarkerEPNS_7QLegendE@Qt_5 5.10.1
 _ZN8QtCharts20QLegendMarkerPrivateC2EPNS_13QLegendMarkerEPNS_7QLegendE@Qt_5 5.10.1
 _ZN8QtCharts20QLegendMarkerPrivateD0Ev@Qt_5 5.10.1
 _ZN8QtCharts20QLegendMarkerPrivateD1Ev@Qt_5 5.10.1
 _ZN8QtCharts20QLegendMarkerPrivateD2Ev@Qt_5 5.10.1
 _ZN8QtCharts20QLogValueAxisPrivate11qt_metacallEN11QMetaObject4CallEiPPv@Qt_5 5.10.1
 _ZN8QtCharts20QLogValueAxisPrivate11qt_metacastEPKc@Qt_5 5.10.1
 _ZN8QtCharts20QLogValueAxisPrivate15updateTickCountEv@Qt_5 5.10.1
 _ZN8QtCharts20QLogValueAxisPrivate16initializeDomainEPNS_14AbstractDomainE@Qt_5 5.10.1
 _ZN8QtCharts20QLogValueAxisPrivate16staticMetaObjectE@Qt_5 5.10.1
 _ZN8QtCharts20QLogValueAxisPrivate18initializeGraphicsEP13QGraphicsItem@Qt_5 5.10.1
 _ZN8QtCharts20QLogValueAxisPrivate6setMaxERK8QVariant@Qt_5 5.10.1
 _ZN8QtCharts20QLogValueAxisPrivate6setMinERK8QVariant@Qt_5 5.10.1
 _ZN8QtCharts20QLogValueAxisPrivate8setRangeERK8QVariantS3_@Qt_5 5.10.1
 _ZN8QtCharts20QLogValueAxisPrivate8setRangeEdd@Qt_5 5.10.1
 _ZN8QtCharts20QLogValueAxisPrivateC1EPNS_13QLogValueAxisE@Qt_5 5.10.1
 _ZN8QtCharts20QLogValueAxisPrivateC2EPNS_13QLogValueAxisE@Qt_5 5.10.1
 _ZN8QtCharts20QLogValueAxisPrivateD0Ev@Qt_5 5.10.1
 _ZN8QtCharts20QLogValueAxisPrivateD1Ev@Qt_5 5.10.1
 _ZN8QtCharts20QLogValueAxisPrivateD2Ev@Qt_5 5.10.1
 _ZN8QtCharts20QSplineSeriesPrivate11qt_metacallEN11QMetaObject4CallEiPPv@Qt_5 5.10.1
 _ZN8QtCharts20QSplineSeriesPrivate11qt_metacastEPKc@Qt_5 5.10.1
 _ZN8QtCharts20QSplineSeriesPrivate15initializeThemeEiPNS_10ChartThemeEb@Qt_5 5.10.1
 _ZN8QtCharts20QSplineSeriesPrivate16staticMetaObjectE@Qt_5 5.10.1
 _ZN8QtCharts20QSplineSeriesPrivate18initializeGraphicsEP13QGraphicsItem@Qt_5 5.10.1
 _ZN8QtCharts20QSplineSeriesPrivate20initializeAnimationsE6QFlagsINS_6QChart15AnimationOptionEEiR12QEasingCurve@Qt_5 5.10.1
 _ZN8QtCharts20QSplineSeriesPrivateC1EPNS_13QSplineSeriesE@Qt_5 5.10.1
 _ZN8QtCharts20QSplineSeriesPrivateC2EPNS_13QSplineSeriesE@Qt_5 5.10.1
 _ZN8QtCharts20QVBoxPlotModelMapper11qt_metacallEN11QMetaObject4CallEiPPv@Qt_5 5.7.1
 _ZN8QtCharts20QVBoxPlotModelMapper11qt_metacastEPKc@Qt_5 5.7.1
 _ZN8QtCharts20QVBoxPlotModelMapper11setFirstRowEi@Qt_5 5.7.1
 _ZN8QtCharts20QVBoxPlotModelMapper11setRowCountEi@Qt_5 5.7.1
 _ZN8QtCharts20QVBoxPlotModelMapper13modelReplacedEv@Qt_5 5.7.1
 _ZN8QtCharts20QVBoxPlotModelMapper14seriesReplacedEv@Qt_5 5.7.1
 _ZN8QtCharts20QVBoxPlotModelMapper15firstRowChangedEv@Qt_5 5.7.1
 _ZN8QtCharts20QVBoxPlotModelMapper15rowCountChangedEv@Qt_5 5.7.1
 _ZN8QtCharts20QVBoxPlotModelMapper16staticMetaObjectE@Qt_5 5.7.1
 _ZN8QtCharts20QVBoxPlotModelMapper19setLastBoxSetColumnEi@Qt_5 5.7.1
 _ZN8QtCharts20QVBoxPlotModelMapper20setFirstBoxSetColumnEi@Qt_5 5.7.1
 _ZN8QtCharts20QVBoxPlotModelMapper23lastBoxSetColumnChangedEv@Qt_5 5.7.1
 _ZN8QtCharts20QVBoxPlotModelMapper24firstBoxSetColumnChangedEv@Qt_5 5.7.1
 _ZN8QtCharts20QVBoxPlotModelMapper8setModelEP18QAbstractItemModel@Qt_5 5.7.1
 _ZN8QtCharts20QVBoxPlotModelMapper9setSeriesEPNS_14QBoxPlotSeriesE@Qt_5 5.7.1
 _ZN8QtCharts20QVBoxPlotModelMapperC1EP7QObject@Qt_5 5.7.1
 _ZN8QtCharts20QVBoxPlotModelMapperC2EP7QObject@Qt_5 5.7.1
 _ZN8QtCharts21ChartBarCategoryAxisX11qt_metacallEN11QMetaObject4CallEiPPv@Qt_5 5.10.1
 _ZN8QtCharts21ChartBarCategoryAxisX11qt_metacastEPKc@Qt_5 5.10.1
 _ZN8QtCharts21ChartBarCategoryAxisX14updateGeometryEv@Qt_5 5.10.1
 _ZN8QtCharts21ChartBarCategoryAxisX16staticMetaObjectE@Qt_5 5.10.1
 _ZN8QtCharts21ChartBarCategoryAxisX23handleCategoriesChangedEv@Qt_5 5.10.1
 _ZN8QtCharts21ChartBarCategoryAxisXC1EPNS_16QBarCategoryAxisEP13QGraphicsItem@Qt_5 5.10.1
 _ZN8QtCharts21ChartBarCategoryAxisXC2EPNS_16QBarCategoryAxisEP13QGraphicsItem@Qt_5 5.10.1
 _ZN8QtCharts21ChartBarCategoryAxisXD0Ev@Qt_5 5.10.1
 _ZN8QtCharts21ChartBarCategoryAxisXD1Ev@Qt_5 5.10.1
 _ZN8QtCharts21ChartBarCategoryAxisXD2Ev@Qt_5 5.10.1
 _ZN8QtCharts21ChartBarCategoryAxisY11qt_metacallEN11QMetaObject4CallEiPPv@Qt_5 5.10.1
 _ZN8QtCharts21ChartBarCategoryAxisY11qt_metacastEPKc@Qt_5 5.10.1
 _ZN8QtCharts21ChartBarCategoryAxisY14updateGeometryEv@Qt_5 5.10.1
 _ZN8QtCharts21ChartBarCategoryAxisY16staticMetaObjectE@Qt_5 5.10.1
 _ZN8QtCharts21ChartBarCategoryAxisY23handleCategoriesChangedEv@Qt_5 5.10.1
 _ZN8QtCharts21ChartBarCategoryAxisYC1EPNS_16QBarCategoryAxisEP13QGraphicsItem@Qt_5 5.10.1
 _ZN8QtCharts21ChartBarCategoryAxisYC2EPNS_16QBarCategoryAxisEP13QGraphicsItem@Qt_5 5.10.1
 _ZN8QtCharts21ChartBarCategoryAxisYD0Ev@Qt_5 5.10.1
 _ZN8QtCharts21ChartBarCategoryAxisYD1Ev@Qt_5 5.10.1
 _ZN8QtCharts21ChartBarCategoryAxisYD2Ev@Qt_5 5.10.1
 _ZN8QtCharts21GLXYSeriesDataManager11qt_metacallEN11QMetaObject4CallEiPPv@Qt_5 5.10.1
 _ZN8QtCharts21GLXYSeriesDataManager11qt_metacastEPKc@Qt_5 5.10.1
 _ZN8QtCharts21GLXYSeriesDataManager12removeSeriesEPKNS_9QXYSeriesE@Qt_5 5.10.1
 _ZN8QtCharts21GLXYSeriesDataManager13seriesRemovedEPKNS_9QXYSeriesE@Qt_5 5.10.1
 _ZN8QtCharts21GLXYSeriesDataManager16staticMetaObjectE@Qt_5 5.10.1
 _ZN8QtCharts21GLXYSeriesDataManager21handleSeriesPenChangeEv@Qt_5 5.10.1
 _ZN8QtCharts21GLXYSeriesDataManager24handleAxisReverseChangedERK5QListIPNS_15QAbstractSeriesEE@Qt_5 5.10.1
 _ZN8QtCharts21GLXYSeriesDataManager24handleScatterColorChangeEv@Qt_5 5.10.1
 _ZN8QtCharts21GLXYSeriesDataManager24handleSeriesOpenGLChangeEv@Qt_5 5.10.1
 _ZN8QtCharts21GLXYSeriesDataManager28handleSeriesVisibilityChangeEv@Qt_5 5.10.1
 _ZN8QtCharts21GLXYSeriesDataManager29handleScatterMarkerSizeChangeEv@Qt_5 5.10.1
 _ZN8QtCharts21GLXYSeriesDataManager7cleanupEv@Qt_5 5.10.1
 _ZN8QtCharts21GLXYSeriesDataManager9setPointsEPNS_9QXYSeriesEPKNS_14AbstractDomainE@Qt_5 5.10.1
 _ZN8QtCharts21GLXYSeriesDataManagerC1EP7QObject@Qt_5 5.10.1
 _ZN8QtCharts21GLXYSeriesDataManagerC2EP7QObject@Qt_5 5.10.1
 _ZN8QtCharts21GLXYSeriesDataManagerD0Ev@Qt_5 5.10.1
 _ZN8QtCharts21GLXYSeriesDataManagerD1Ev@Qt_5 5.10.1
 _ZN8QtCharts21GLXYSeriesDataManagerD2Ev@Qt_5 5.10.1
 _ZN8QtCharts21PolarChartAxisAngular11createItemsEi@Qt_5 5.10.1
 _ZN8QtCharts21PolarChartAxisAngular11qt_metacallEN11QMetaObject4CallEiPPv@Qt_5 5.10.1
 _ZN8QtCharts21PolarChartAxisAngular11qt_metacastEPKc@Qt_5 5.10.1
 _ZN8QtCharts21PolarChartAxisAngular14updateGeometryEv@Qt_5 5.10.1
 _ZN8QtCharts21PolarChartAxisAngular16staticMetaObjectE@Qt_5 5.10.1
 _ZN8QtCharts21PolarChartAxisAngular19preferredAxisRadiusERK6QSizeF@Qt_5 5.10.1
 _ZN8QtCharts21PolarChartAxisAngular20handleGridPenChangedERK4QPen@Qt_5 5.10.1
 _ZN8QtCharts21PolarChartAxisAngular20updateMinorTickItemsEv@Qt_5 5.10.1
 _ZN8QtCharts21PolarChartAxisAngular21handleArrowPenChangedERK4QPen@Qt_5 5.10.1
 _ZN8QtCharts21PolarChartAxisAngular23updateMinorTickGeometryEv@Qt_5 5.10.1
 _ZN8QtCharts21PolarChartAxisAngular25handleMinorGridPenChangedERK4QPen@Qt_5 5.10.1
 _ZN8QtCharts21PolarChartAxisAngular26handleGridLineColorChangedERK6QColor@Qt_5 5.10.1
 _ZN8QtCharts21PolarChartAxisAngular26handleMinorArrowPenChangedERK4QPen@Qt_5 5.10.1
 _ZN8QtCharts21PolarChartAxisAngular31handleMinorGridLineColorChangedERK6QColor@Qt_5 5.10.1
 _ZN8QtCharts21PolarChartAxisAngularC1EPNS_13QAbstractAxisEP13QGraphicsItemb@Qt_5 5.10.1
 _ZN8QtCharts21PolarChartAxisAngularC2EPNS_13QAbstractAxisEP13QGraphicsItemb@Qt_5 5.10.1
 _ZN8QtCharts21PolarChartAxisAngularD0Ev@Qt_5 5.10.1
 _ZN8QtCharts21PolarChartAxisAngularD1Ev@Qt_5 5.10.1
 _ZN8QtCharts21PolarChartAxisAngularD2Ev@Qt_5 5.10.1
 _ZN8QtCharts21QBoxPlotSeriesPrivate11qt_metacallEN11QMetaObject4CallEiPPv@Qt_5 5.10.1
 _ZN8QtCharts21QBoxPlotSeriesPrivate11qt_metacastEPKc@Qt_5 5.10.1
 _ZN8QtCharts21QBoxPlotSeriesPrivate12updatedBoxesEv@Qt_5 5.10.1
 _ZN8QtCharts21QBoxPlotSeriesPrivate13doubleClickedEiPNS_7QBoxSetE@Qt_5 5.10.1
 _ZN8QtCharts21QBoxPlotSeriesPrivate13updatedLayoutEv@Qt_5 5.10.1
 _ZN8QtCharts21QBoxPlotSeriesPrivate14initializeAxesEv@Qt_5 5.10.1
 _ZN8QtCharts21QBoxPlotSeriesPrivate15initializeThemeEiPNS_10ChartThemeEb@Qt_5 5.10.1
 _ZN8QtCharts21QBoxPlotSeriesPrivate16initializeDomainEv@Qt_5 5.10.1
 _ZN8QtCharts21QBoxPlotSeriesPrivate16staticMetaObjectE@Qt_5 5.10.1
 _ZN8QtCharts21QBoxPlotSeriesPrivate17restructuredBoxesEv@Qt_5 5.10.1
 _ZN8QtCharts21QBoxPlotSeriesPrivate18handleSeriesChangeEPNS_15QAbstractSeriesE@Qt_5 5.10.1
 _ZN8QtCharts21QBoxPlotSeriesPrivate18handleSeriesRemoveEPNS_15QAbstractSeriesE@Qt_5 5.10.1
 _ZN8QtCharts21QBoxPlotSeriesPrivate18initializeGraphicsEP13QGraphicsItem@Qt_5 5.10.1
 _ZN8QtCharts21QBoxPlotSeriesPrivate18populateCategoriesEPNS_16QBarCategoryAxisE@Qt_5 5.10.1
 _ZN8QtCharts21QBoxPlotSeriesPrivate19createLegendMarkersEPNS_7QLegendE@Qt_5 5.10.1
 _ZN8QtCharts21QBoxPlotSeriesPrivate20initializeAnimationsE6QFlagsINS_6QChart15AnimationOptionEEiR12QEasingCurve@Qt_5 5.10.1
 _ZN8QtCharts21QBoxPlotSeriesPrivate3maxEv@Qt_5 5.10.1
 _ZN8QtCharts21QBoxPlotSeriesPrivate3minEv@Qt_5 5.10.1
 _ZN8QtCharts21QBoxPlotSeriesPrivate6appendE5QListIPNS_7QBoxSetEE@Qt_5 5.10.1
 _ZN8QtCharts21QBoxPlotSeriesPrivate6appendEPNS_7QBoxSetE@Qt_5 5.10.1
 _ZN8QtCharts21QBoxPlotSeriesPrivate6insertEiPNS_7QBoxSetE@Qt_5 5.10.1
 _ZN8QtCharts21QBoxPlotSeriesPrivate6removeE5QListIPNS_7QBoxSetEE@Qt_5 5.10.1
 _ZN8QtCharts21QBoxPlotSeriesPrivate6removeEPNS_7QBoxSetE@Qt_5 5.10.1
 _ZN8QtCharts21QBoxPlotSeriesPrivate7clickedEiPNS_7QBoxSetE@Qt_5 5.10.1
 _ZN8QtCharts21QBoxPlotSeriesPrivate7pressedEiPNS_7QBoxSetE@Qt_5 5.10.1
 _ZN8QtCharts21QBoxPlotSeriesPrivate7updatedEv@Qt_5 5.10.1
 _ZN8QtCharts21QBoxPlotSeriesPrivate8boxSetAtEi@Qt_5 5.10.1
 _ZN8QtCharts21QBoxPlotSeriesPrivate8releasedEiPNS_7QBoxSetE@Qt_5 5.10.1
 _ZN8QtCharts21QBoxPlotSeriesPrivateC1EPNS_14QBoxPlotSeriesE@Qt_5 5.10.1
 _ZN8QtCharts21QBoxPlotSeriesPrivateC2EPNS_14QBoxPlotSeriesE@Qt_5 5.10.1
 _ZN8QtCharts21QBoxPlotSeriesPrivateD0Ev@Qt_5 5.10.1
 _ZN8QtCharts21QBoxPlotSeriesPrivateD1Ev@Qt_5 5.10.1
 _ZN8QtCharts21QBoxPlotSeriesPrivateD2Ev@Qt_5 5.10.1
 _ZN8QtCharts21QScatterSeriesPrivate15initializeThemeEiPNS_10ChartThemeEb@Qt_5 5.10.1
 _ZN8QtCharts21QScatterSeriesPrivate18initializeGraphicsEP13QGraphicsItem@Qt_5 5.10.1
 _ZN8QtCharts21QScatterSeriesPrivate20initializeAnimationsE6QFlagsINS_6QChart15AnimationOptionEEiR12QEasingCurve@Qt_5 5.10.1
 _ZN8QtCharts21QScatterSeriesPrivateC1EPNS_14QScatterSeriesE@Qt_5 5.10.1
 _ZN8QtCharts21QScatterSeriesPrivateC2EPNS_14QScatterSeriesE@Qt_5 5.10.1
 _ZN8QtCharts21QXYModelMapperPrivate10insertDataEii@Qt_5 5.10.1
 _ZN8QtCharts21QXYModelMapperPrivate10removeDataEii@Qt_5 5.10.1
 _ZN8QtCharts21QXYModelMapperPrivate11qt_metacallEN11QMetaObject4CallEiPPv@Qt_5 5.10.1
 _ZN8QtCharts21QXYModelMapperPrivate11qt_metacastEPKc@Qt_5 5.10.1
 _ZN8QtCharts21QXYModelMapperPrivate11xModelIndexEi@Qt_5 5.10.1
 _ZN8QtCharts21QXYModelMapperPrivate11yModelIndexEi@Qt_5 5.10.1
 _ZN8QtCharts21QXYModelMapperPrivate12modelUpdatedE11QModelIndexS1_@Qt_5 5.10.1
 _ZN8QtCharts21QXYModelMapperPrivate14modelRowsAddedE11QModelIndexii@Qt_5 5.10.1
 _ZN8QtCharts21QXYModelMapperPrivate14valueFromModelE11QModelIndex@Qt_5 5.10.1
 _ZN8QtCharts21QXYModelMapperPrivate15setValueToModelE11QModelIndexd@Qt_5 5.10.1
 _ZN8QtCharts21QXYModelMapperPrivate16handlePointAddedEi@Qt_5 5.10.1
 _ZN8QtCharts21QXYModelMapperPrivate16modelRowsRemovedE11QModelIndexii@Qt_5 5.10.1
 _ZN8QtCharts21QXYModelMapperPrivate16staticMetaObjectE@Qt_5 5.10.1
 _ZN8QtCharts21QXYModelMapperPrivate17blockModelSignalsEb@Qt_5 5.10.1
 _ZN8QtCharts21QXYModelMapperPrivate17modelColumnsAddedE11QModelIndexii@Qt_5 5.10.1
 _ZN8QtCharts21QXYModelMapperPrivate18blockSeriesSignalsEb@Qt_5 5.10.1
 _ZN8QtCharts21QXYModelMapperPrivate18handlePointRemovedEi@Qt_5 5.10.1
 _ZN8QtCharts21QXYModelMapperPrivate19handlePointReplacedEi@Qt_5 5.10.1
 _ZN8QtCharts21QXYModelMapperPrivate19handlePointsRemovedEii@Qt_5 5.10.1
 _ZN8QtCharts21QXYModelMapperPrivate19modelColumnsRemovedE11QModelIndexii@Qt_5 5.10.1
 _ZN8QtCharts21QXYModelMapperPrivate20handleModelDestroyedEv@Qt_5 5.10.1
 _ZN8QtCharts21QXYModelMapperPrivate21handleSeriesDestroyedEv@Qt_5 5.10.1
 _ZN8QtCharts21QXYModelMapperPrivate21initializeXYFromModelEv@Qt_5 5.10.1
 _ZN8QtCharts21QXYModelMapperPrivateC1EPNS_14QXYModelMapperE@Qt_5 5.10.1
 _ZN8QtCharts21QXYModelMapperPrivateC2EPNS_14QXYModelMapperE@Qt_5 5.10.1
 _ZN8QtCharts22HorizontalBarChartItem11qt_metacallEN11QMetaObject4CallEiPPv@Qt_5 5.10.1
 _ZN8QtCharts22HorizontalBarChartItem11qt_metacastEPKc@Qt_5 5.10.1
 _ZN8QtCharts22HorizontalBarChartItem12topLeftPointEiiidd@Qt_5 5.10.1
 _ZN8QtCharts22HorizontalBarChartItem15calculateLayoutEv@Qt_5 5.10.1
 _ZN8QtCharts22HorizontalBarChartItem16bottomRightPointEiiidd@Qt_5 5.10.1
 _ZN8QtCharts22HorizontalBarChartItem16initializeLayoutEiiib@Qt_5 5.10.1
 _ZN8QtCharts22HorizontalBarChartItem16staticMetaObjectE@Qt_5 5.10.1
 _ZN8QtCharts22HorizontalBarChartItemC1EPNS_18QAbstractBarSeriesEP13QGraphicsItem@Qt_5 5.10.1
 _ZN8QtCharts22HorizontalBarChartItemC2EPNS_18QAbstractBarSeriesEP13QGraphicsItem@Qt_5 5.10.1
 _ZN8QtCharts22QAbstractSeriesPrivate11qt_metacallEN11QMetaObject4CallEiPPv@Qt_5 5.10.1
 _ZN8QtCharts22QAbstractSeriesPrivate11qt_metacastEPKc@Qt_5 5.10.1
 _ZN8QtCharts22QAbstractSeriesPrivate12countChangedEv@Qt_5 5.10.1
 _ZN8QtCharts22QAbstractSeriesPrivate12setPresenterEPNS_14ChartPresenterE@Qt_5 5.10.1
 _ZN8QtCharts22QAbstractSeriesPrivate14setBlockOpenGLEb@Qt_5 5.10.1
 _ZN8QtCharts22QAbstractSeriesPrivate16staticMetaObjectE@Qt_5 5.10.1
 _ZN8QtCharts22QAbstractSeriesPrivate18initializeGraphicsEP13QGraphicsItem@Qt_5 5.10.1
 _ZN8QtCharts22QAbstractSeriesPrivate20initializeAnimationsE6QFlagsINS_6QChart15AnimationOptionEEiR12QEasingCurve@Qt_5 5.10.1
 _ZN8QtCharts22QAbstractSeriesPrivate9setDomainEPNS_14AbstractDomainE@Qt_5 5.10.1
 _ZN8QtCharts22QAbstractSeriesPrivateC1EPNS_15QAbstractSeriesE@Qt_5 5.10.1
 _ZN8QtCharts22QAbstractSeriesPrivateC2EPNS_15QAbstractSeriesE@Qt_5 5.10.1
 _ZN8QtCharts22QAbstractSeriesPrivateD0Ev@Qt_5 5.10.1
 _ZN8QtCharts22QAbstractSeriesPrivateD1Ev@Qt_5 5.10.1
 _ZN8QtCharts22QAbstractSeriesPrivateD2Ev@Qt_5 5.10.1
 _ZN8QtCharts22QBarModelMapperPrivate10insertDataEii@Qt_5 5.10.1
 _ZN8QtCharts22QBarModelMapperPrivate10removeDataEii@Qt_5 5.10.1
 _ZN8QtCharts22QBarModelMapperPrivate11qt_metacallEN11QMetaObject4CallEiPPv@Qt_5 5.10.1
 _ZN8QtCharts22QBarModelMapperPrivate11qt_metacastEPKc@Qt_5 5.10.1
 _ZN8QtCharts22QBarModelMapperPrivate11valuesAddedEii@Qt_5 5.10.1
 _ZN8QtCharts22QBarModelMapperPrivate12barSetsAddedE5QListIPNS_7QBarSetEE@Qt_5 5.10.1
 _ZN8QtCharts22QBarModelMapperPrivate12modelUpdatedE11QModelIndexS1_@Qt_5 5.10.1
 _ZN8QtCharts22QBarModelMapperPrivate13barModelIndexEii@Qt_5 5.10.1
 _ZN8QtCharts22QBarModelMapperPrivate13valuesRemovedEii@Qt_5 5.10.1
 _ZN8QtCharts22QBarModelMapperPrivate14barSetsRemovedE5QListIPNS_7QBarSetEE@Qt_5 5.10.1
 _ZN8QtCharts22QBarModelMapperPrivate14modelRowsAddedE11QModelIndexii@Qt_5 5.10.1
 _ZN8QtCharts22QBarModelMapperPrivate15barLabelChangedEv@Qt_5 5.10.1
 _ZN8QtCharts22QBarModelMapperPrivate15barValueChangedEi@Qt_5 5.10.1
 _ZN8QtCharts22QBarModelMapperPrivate16modelRowsRemovedE11QModelIndexii@Qt_5 5.10.1
 _ZN8QtCharts22QBarModelMapperPrivate16staticMetaObjectE@Qt_5 5.10.1
 _ZN8QtCharts22QBarModelMapperPrivate17blockModelSignalsEb@Qt_5 5.10.1
 _ZN8QtCharts22QBarModelMapperPrivate17modelColumnsAddedE11QModelIndexii@Qt_5 5.10.1
 _ZN8QtCharts22QBarModelMapperPrivate18blockSeriesSignalsEb@Qt_5 5.10.1
 _ZN8QtCharts22QBarModelMapperPrivate19modelColumnsRemovedE11QModelIndexii@Qt_5 5.10.1
 _ZN8QtCharts22QBarModelMapperPrivate20handleModelDestroyedEv@Qt_5 5.10.1
 _ZN8QtCharts22QBarModelMapperPrivate21handleSeriesDestroyedEv@Qt_5 5.10.1
 _ZN8QtCharts22QBarModelMapperPrivate22initializeBarFromModelEv@Qt_5 5.10.1
 _ZN8QtCharts22QBarModelMapperPrivate22modelHeaderDataUpdatedEN2Qt11OrientationEii@Qt_5 5.10.1
 _ZN8QtCharts22QBarModelMapperPrivate6barSetE11QModelIndex@Qt_5 5.10.1
 _ZN8QtCharts22QBarModelMapperPrivateC1EPNS_15QBarModelMapperE@Qt_5 5.10.1
 _ZN8QtCharts22QBarModelMapperPrivateC2EPNS_15QBarModelMapperE@Qt_5 5.10.1
 _ZN8QtCharts22QCandlestickSetPrivate11qt_metacallEN11QMetaObject4CallEiPPv@Qt_5 5.10.1
 _ZN8QtCharts22QCandlestickSetPrivate11qt_metacastEPKc@Qt_5 5.10.1
 _ZN8QtCharts22QCandlestickSetPrivate12setTimestampEd@Qt_5 5.10.1
 _ZN8QtCharts22QCandlestickSetPrivate13updatedLayoutEv@Qt_5 5.10.1
 _ZN8QtCharts22QCandlestickSetPrivate16staticMetaObjectE@Qt_5 5.10.1
 _ZN8QtCharts22QCandlestickSetPrivate18updatedCandlestickEv@Qt_5 5.10.1
 _ZN8QtCharts22QCandlestickSetPrivateC1EdPNS_15QCandlestickSetE@Qt_5 5.10.1
 _ZN8QtCharts22QCandlestickSetPrivateC2EdPNS_15QCandlestickSetE@Qt_5 5.10.1
 _ZN8QtCharts22QCandlestickSetPrivateD0Ev@Qt_5 5.10.1
 _ZN8QtCharts22QCandlestickSetPrivateD1Ev@Qt_5 5.10.1
 _ZN8QtCharts22QCandlestickSetPrivateD2Ev@Qt_5 5.10.1
 _ZN8QtCharts22QPieModelMapperPrivate10insertDataEii@Qt_5 5.10.1
 _ZN8QtCharts22QPieModelMapperPrivate10removeDataEii@Qt_5 5.10.1
 _ZN8QtCharts22QPieModelMapperPrivate11qt_metacallEN11QMetaObject4CallEiPPv@Qt_5 5.10.1
 _ZN8QtCharts22QPieModelMapperPrivate11qt_metacastEPKc@Qt_5 5.10.1
 _ZN8QtCharts22QPieModelMapperPrivate11slicesAddedE5QListIPNS_9QPieSliceEE@Qt_5 5.10.1
 _ZN8QtCharts22QPieModelMapperPrivate12modelUpdatedE11QModelIndexS1_@Qt_5 5.10.1
 _ZN8QtCharts22QPieModelMapperPrivate13slicesRemovedE5QListIPNS_9QPieSliceEE@Qt_5 5.10.1
 _ZN8QtCharts22QPieModelMapperPrivate14modelRowsAddedE11QModelIndexii@Qt_5 5.10.1
 _ZN8QtCharts22QPieModelMapperPrivate15labelModelIndexEi@Qt_5 5.10.1
 _ZN8QtCharts22QPieModelMapperPrivate15valueModelIndexEi@Qt_5 5.10.1
 _ZN8QtCharts22QPieModelMapperPrivate16modelRowsRemovedE11QModelIndexii@Qt_5 5.10.1
 _ZN8QtCharts22QPieModelMapperPrivate16staticMetaObjectE@Qt_5 5.10.1
 _ZN8QtCharts22QPieModelMapperPrivate17blockModelSignalsEb@Qt_5 5.10.1
 _ZN8QtCharts22QPieModelMapperPrivate17modelColumnsAddedE11QModelIndexii@Qt_5 5.10.1
 _ZN8QtCharts22QPieModelMapperPrivate17sliceLabelChangedEv@Qt_5 5.10.1
 _ZN8QtCharts22QPieModelMapperPrivate17sliceValueChangedEv@Qt_5 5.10.1
 _ZN8QtCharts22QPieModelMapperPrivate18blockSeriesSignalsEb@Qt_5 5.10.1
 _ZN8QtCharts22QPieModelMapperPrivate19modelColumnsRemovedE11QModelIndexii@Qt_5 5.10.1
 _ZN8QtCharts22QPieModelMapperPrivate20handleModelDestroyedEv@Qt_5 5.10.1
 _ZN8QtCharts22QPieModelMapperPrivate21handleSeriesDestroyedEv@Qt_5 5.10.1
 _ZN8QtCharts22QPieModelMapperPrivate22initializePieFromModelEv@Qt_5 5.10.1
 _ZN8QtCharts22QPieModelMapperPrivateC1EPNS_15QPieModelMapperE@Qt_5 5.10.1
 _ZN8QtCharts22QPieModelMapperPrivateC2EPNS_15QPieModelMapperE@Qt_5 5.10.1
 _ZN8QtCharts22QXYLegendMarkerPrivate11qt_metacallEN11QMetaObject4CallEiPPv@Qt_5 5.10.1
 _ZN8QtCharts22QXYLegendMarkerPrivate11qt_metacastEPKc@Qt_5 5.10.1
 _ZN8QtCharts22QXYLegendMarkerPrivate13relatedObjectEv@Qt_5 5.10.1
 _ZN8QtCharts22QXYLegendMarkerPrivate16staticMetaObjectE@Qt_5 5.10.1
 _ZN8QtCharts22QXYLegendMarkerPrivate6seriesEv@Qt_5 5.10.1
 _ZN8QtCharts22QXYLegendMarkerPrivate7updatedEv@Qt_5 5.10.1
 _ZN8QtCharts22QXYLegendMarkerPrivateC1EPNS_15QXYLegendMarkerEPNS_9QXYSeriesEPNS_7QLegendE@Qt_5 5.10.1
 _ZN8QtCharts22QXYLegendMarkerPrivateC2EPNS_15QXYLegendMarkerEPNS_9QXYSeriesEPNS_7QLegendE@Qt_5 5.10.1
 _ZN8QtCharts22QXYLegendMarkerPrivateD0Ev@Qt_5 5.10.1
 _ZN8QtCharts22QXYLegendMarkerPrivateD1Ev@Qt_5 5.10.1
 _ZN8QtCharts22QXYLegendMarkerPrivateD2Ev@Qt_5 5.10.1
 _ZN8QtCharts23QBarCategoryAxisPrivate11qt_metacallEN11QMetaObject4CallEiPPv@Qt_5 5.10.1
 _ZN8QtCharts23QBarCategoryAxisPrivate11qt_metacastEPKc@Qt_5 5.10.1
 _ZN8QtCharts23QBarCategoryAxisPrivate16initializeDomainEPNS_14AbstractDomainE@Qt_5 5.10.1
 _ZN8QtCharts23QBarCategoryAxisPrivate16staticMetaObjectE@Qt_5 5.10.1
 _ZN8QtCharts23QBarCategoryAxisPrivate18initializeGraphicsEP13QGraphicsItem@Qt_5 5.10.1
 _ZN8QtCharts23QBarCategoryAxisPrivate20updateCategoryDomainEv@Qt_5 5.10.1
 _ZN8QtCharts23QBarCategoryAxisPrivate6setMaxERK8QVariant@Qt_5 5.10.1
 _ZN8QtCharts23QBarCategoryAxisPrivate6setMinERK8QVariant@Qt_5 5.10.1
 _ZN8QtCharts23QBarCategoryAxisPrivate8setRangeERK7QStringS3_@Qt_5 5.10.1
 _ZN8QtCharts23QBarCategoryAxisPrivate8setRangeERK8QVariantS3_@Qt_5 5.10.1
 _ZN8QtCharts23QBarCategoryAxisPrivate8setRangeEdd@Qt_5 5.10.1
 _ZN8QtCharts23QBarCategoryAxisPrivateC1EPNS_16QBarCategoryAxisE@Qt_5 5.10.1
 _ZN8QtCharts23QBarCategoryAxisPrivateC2EPNS_16QBarCategoryAxisE@Qt_5 5.10.1
 _ZN8QtCharts23QBarCategoryAxisPrivateD0Ev@Qt_5 5.10.1
 _ZN8QtCharts23QBarCategoryAxisPrivateD1Ev@Qt_5 5.10.1
 _ZN8QtCharts23QBarCategoryAxisPrivateD2Ev@Qt_5 5.10.1
 _ZN8QtCharts23QBarLegendMarkerPrivate11qt_metacallEN11QMetaObject4CallEiPPv@Qt_5 5.10.1
 _ZN8QtCharts23QBarLegendMarkerPrivate11qt_metacastEPKc@Qt_5 5.10.1
 _ZN8QtCharts23QBarLegendMarkerPrivate13relatedObjectEv@Qt_5 5.10.1
 _ZN8QtCharts23QBarLegendMarkerPrivate16staticMetaObjectE@Qt_5 5.10.1
 _ZN8QtCharts23QBarLegendMarkerPrivate6seriesEv@Qt_5 5.10.1
 _ZN8QtCharts23QBarLegendMarkerPrivate7updatedEv@Qt_5 5.10.1
 _ZN8QtCharts23QBarLegendMarkerPrivateC1EPNS_16QBarLegendMarkerEPNS_18QAbstractBarSeriesEPNS_7QBarSetEPNS_7QLegendE@Qt_5 5.10.1
 _ZN8QtCharts23QBarLegendMarkerPrivateC2EPNS_16QBarLegendMarkerEPNS_18QAbstractBarSeriesEPNS_7QBarSetEPNS_7QLegendE@Qt_5 5.10.1
 _ZN8QtCharts23QBarLegendMarkerPrivateD0Ev@Qt_5 5.10.1
 _ZN8QtCharts23QBarLegendMarkerPrivateD1Ev@Qt_5 5.10.1
 _ZN8QtCharts23QBarLegendMarkerPrivateD2Ev@Qt_5 5.10.1
 _ZN8QtCharts23QCandlestickModelMapper11qt_metacallEN11QMetaObject4CallEiPPv@Qt_5 5.9.0~rc
 _ZN8QtCharts23QCandlestickModelMapper11qt_metacastEPKc@Qt_5 5.9.0~rc
 _ZN8QtCharts23QCandlestickModelMapper12setTimestampEi@Qt_5 5.9.0~rc
 _ZN8QtCharts23QCandlestickModelMapper13modelReplacedEv@Qt_5 5.9.0~rc
 _ZN8QtCharts23QCandlestickModelMapper14seriesReplacedEv@Qt_5 5.9.0~rc
 _ZN8QtCharts23QCandlestickModelMapper16staticMetaObjectE@Qt_5 5.9.0~rc
 _ZN8QtCharts23QCandlestickModelMapper17setLastSetSectionEi@Qt_5 5.9.0~rc
 _ZN8QtCharts23QCandlestickModelMapper18setFirstSetSectionEi@Qt_5 5.9.0~rc
 _ZN8QtCharts23QCandlestickModelMapper6setLowEi@Qt_5 5.9.0~rc
 _ZN8QtCharts23QCandlestickModelMapper7setHighEi@Qt_5 5.9.0~rc
 _ZN8QtCharts23QCandlestickModelMapper7setOpenEi@Qt_5 5.9.0~rc
 _ZN8QtCharts23QCandlestickModelMapper8setCloseEi@Qt_5 5.9.0~rc
 _ZN8QtCharts23QCandlestickModelMapper8setModelEP18QAbstractItemModel@Qt_5 5.9.0~rc
 _ZN8QtCharts23QCandlestickModelMapper9setSeriesEPNS_18QCandlestickSeriesE@Qt_5 5.9.0~rc
 _ZN8QtCharts23QCandlestickModelMapperC1EP7QObject@Qt_5 5.9.0~rc
 _ZN8QtCharts23QCandlestickModelMapperC2EP7QObject@Qt_5 5.9.0~rc
 _ZN8QtCharts23QPieLegendMarkerPrivate11qt_metacallEN11QMetaObject4CallEiPPv@Qt_5 5.10.1
 _ZN8QtCharts23QPieLegendMarkerPrivate11qt_metacastEPKc@Qt_5 5.10.1
 _ZN8QtCharts23QPieLegendMarkerPrivate13relatedObjectEv@Qt_5 5.10.1
 _ZN8QtCharts23QPieLegendMarkerPrivate16staticMetaObjectE@Qt_5 5.10.1
 _ZN8QtCharts23QPieLegendMarkerPrivate6seriesEv@Qt_5 5.10.1
 _ZN8QtCharts23QPieLegendMarkerPrivate7updatedEv@Qt_5 5.10.1
 _ZN8QtCharts23QPieLegendMarkerPrivateC1EPNS_16QPieLegendMarkerEPNS_10QPieSeriesEPNS_9QPieSliceEPNS_7QLegendE@Qt_5 5.10.1
 _ZN8QtCharts23QPieLegendMarkerPrivateC2EPNS_16QPieLegendMarkerEPNS_10QPieSeriesEPNS_9QPieSliceEPNS_7QLegendE@Qt_5 5.10.1
 _ZN8QtCharts23QPieLegendMarkerPrivateD0Ev@Qt_5 5.10.1
 _ZN8QtCharts23QPieLegendMarkerPrivateD1Ev@Qt_5 5.10.1
 _ZN8QtCharts23QPieLegendMarkerPrivateD2Ev@Qt_5 5.10.1
 _ZN8QtCharts24QAreaLegendMarkerPrivate11qt_metacallEN11QMetaObject4CallEiPPv@Qt_5 5.10.1
 _ZN8QtCharts24QAreaLegendMarkerPrivate11qt_metacastEPKc@Qt_5 5.10.1
 _ZN8QtCharts24QAreaLegendMarkerPrivate13relatedObjectEv@Qt_5 5.10.1
 _ZN8QtCharts24QAreaLegendMarkerPrivate16staticMetaObjectE@Qt_5 5.10.1
 _ZN8QtCharts24QAreaLegendMarkerPrivate6seriesEv@Qt_5 5.10.1
 _ZN8QtCharts24QAreaLegendMarkerPrivate7updatedEv@Qt_5 5.10.1
 _ZN8QtCharts24QAreaLegendMarkerPrivateC1EPNS_17QAreaLegendMarkerEPNS_11QAreaSeriesEPNS_7QLegendE@Qt_5 5.10.1
 _ZN8QtCharts24QAreaLegendMarkerPrivateC2EPNS_17QAreaLegendMarkerEPNS_11QAreaSeriesEPNS_7QLegendE@Qt_5 5.10.1
 _ZN8QtCharts24QAreaLegendMarkerPrivateD0Ev@Qt_5 5.10.1
 _ZN8QtCharts24QAreaLegendMarkerPrivateD1Ev@Qt_5 5.10.1
 _ZN8QtCharts24QAreaLegendMarkerPrivateD2Ev@Qt_5 5.10.1
 _ZN8QtCharts24QCandlestickLegendMarker11qt_metacallEN11QMetaObject4CallEiPPv@Qt_5 5.9.0~rc
 _ZN8QtCharts24QCandlestickLegendMarker11qt_metacastEPKc@Qt_5 5.9.0~rc
 _ZN8QtCharts24QCandlestickLegendMarker16staticMetaObjectE@Qt_5 5.9.0~rc
 _ZN8QtCharts24QCandlestickLegendMarker4typeEv@Qt_5 5.9.0~rc
 _ZN8QtCharts24QCandlestickLegendMarker6seriesEv@Qt_5 5.9.0~rc
 _ZN8QtCharts24QCandlestickLegendMarkerC1EPNS_18QCandlestickSeriesEPNS_7QLegendEP7QObject@Qt_5 5.9.0~rc
 _ZN8QtCharts24QCandlestickLegendMarkerC2EPNS_18QCandlestickSeriesEPNS_7QLegendEP7QObject@Qt_5 5.9.0~rc
 _ZN8QtCharts24QCandlestickLegendMarkerD0Ev@Qt_5 5.9.0~rc
 _ZN8QtCharts24QCandlestickLegendMarkerD1Ev@Qt_5 5.9.0~rc
 _ZN8QtCharts24QCandlestickLegendMarkerD2Ev@Qt_5 5.9.0~rc
 _ZN8QtCharts24QHCandlestickModelMapper11qt_metacallEN11QMetaObject4CallEiPPv@Qt_5 5.9.0~rc
 _ZN8QtCharts24QHCandlestickModelMapper11qt_metacastEPKc@Qt_5 5.9.0~rc
 _ZN8QtCharts24QHCandlestickModelMapper12setLowColumnEi@Qt_5 5.9.0~rc
 _ZN8QtCharts24QHCandlestickModelMapper13setHighColumnEi@Qt_5 5.9.0~rc
 _ZN8QtCharts24QHCandlestickModelMapper13setLastSetRowEi@Qt_5 5.9.0~rc
 _ZN8QtCharts24QHCandlestickModelMapper13setOpenColumnEi@Qt_5 5.9.0~rc
 _ZN8QtCharts24QHCandlestickModelMapper14setCloseColumnEi@Qt_5 5.9.0~rc
 _ZN8QtCharts24QHCandlestickModelMapper14setFirstSetRowEi@Qt_5 5.9.0~rc
 _ZN8QtCharts24QHCandlestickModelMapper16lowColumnChangedEv@Qt_5 5.9.0~rc
 _ZN8QtCharts24QHCandlestickModelMapper16staticMetaObjectE@Qt_5 5.9.0~rc
 _ZN8QtCharts24QHCandlestickModelMapper17highColumnChangedEv@Qt_5 5.9.0~rc
 _ZN8QtCharts24QHCandlestickModelMapper17lastSetRowChangedEv@Qt_5 5.9.0~rc
 _ZN8QtCharts24QHCandlestickModelMapper17openColumnChangedEv@Qt_5 5.9.0~rc
 _ZN8QtCharts24QHCandlestickModelMapper18closeColumnChangedEv@Qt_5 5.9.0~rc
 _ZN8QtCharts24QHCandlestickModelMapper18firstSetRowChangedEv@Qt_5 5.9.0~rc
 _ZN8QtCharts24QHCandlestickModelMapper18setTimestampColumnEi@Qt_5 5.9.0~rc
 _ZN8QtCharts24QHCandlestickModelMapper22timestampColumnChangedEv@Qt_5 5.9.0~rc
 _ZN8QtCharts24QHCandlestickModelMapperC1EP7QObject@Qt_5 5.9.0~rc
 _ZN8QtCharts24QHCandlestickModelMapperC2EP7QObject@Qt_5 5.9.0~rc
 _ZN8QtCharts24QPercentBarSeriesPrivate16initializeDomainEv@Qt_5 5.10.1
 _ZN8QtCharts24QPercentBarSeriesPrivate18initializeGraphicsEP13QGraphicsItem@Qt_5 5.10.1
 _ZN8QtCharts24QPercentBarSeriesPrivateC1EPNS_17QPercentBarSeriesE@Qt_5 5.10.1
 _ZN8QtCharts24QPercentBarSeriesPrivateC2EPNS_17QPercentBarSeriesE@Qt_5 5.10.1
 _ZN8QtCharts24QStackedBarSeriesPrivate16initializeDomainEv@Qt_5 5.10.1
 _ZN8QtCharts24QStackedBarSeriesPrivate18initializeGraphicsEP13QGraphicsItem@Qt_5 5.10.1
 _ZN8QtCharts24QStackedBarSeriesPrivateC1EPNS_17QStackedBarSeriesE@Qt_5 5.10.1
 _ZN8QtCharts24QStackedBarSeriesPrivateC2EPNS_17QStackedBarSeriesE@Qt_5 5.10.1
 _ZN8QtCharts24QVCandlestickModelMapper10setHighRowEi@Qt_5 5.9.0~rc
 _ZN8QtCharts24QVCandlestickModelMapper10setOpenRowEi@Qt_5 5.9.0~rc
 _ZN8QtCharts24QVCandlestickModelMapper11qt_metacallEN11QMetaObject4CallEiPPv@Qt_5 5.9.0~rc
 _ZN8QtCharts24QVCandlestickModelMapper11qt_metacastEPKc@Qt_5 5.9.0~rc
 _ZN8QtCharts24QVCandlestickModelMapper11setCloseRowEi@Qt_5 5.9.0~rc
 _ZN8QtCharts24QVCandlestickModelMapper13lowRowChangedEv@Qt_5 5.9.0~rc
 _ZN8QtCharts24QVCandlestickModelMapper14highRowChangedEv@Qt_5 5.9.0~rc
 _ZN8QtCharts24QVCandlestickModelMapper14openRowChangedEv@Qt_5 5.9.0~rc
 _ZN8QtCharts24QVCandlestickModelMapper15closeRowChangedEv@Qt_5 5.9.0~rc
 _ZN8QtCharts24QVCandlestickModelMapper15setTimestampRowEi@Qt_5 5.9.0~rc
 _ZN8QtCharts24QVCandlestickModelMapper16setLastSetColumnEi@Qt_5 5.9.0~rc
 _ZN8QtCharts24QVCandlestickModelMapper16staticMetaObjectE@Qt_5 5.9.0~rc
 _ZN8QtCharts24QVCandlestickModelMapper17setFirstSetColumnEi@Qt_5 5.9.0~rc
 _ZN8QtCharts24QVCandlestickModelMapper19timestampRowChangedEv@Qt_5 5.9.0~rc
 _ZN8QtCharts24QVCandlestickModelMapper20lastSetColumnChangedEv@Qt_5 5.9.0~rc
 _ZN8QtCharts24QVCandlestickModelMapper21firstSetColumnChangedEv@Qt_5 5.9.0~rc
 _ZN8QtCharts24QVCandlestickModelMapper9setLowRowEi@Qt_5 5.9.0~rc
 _ZN8QtCharts24QVCandlestickModelMapperC1EP7QObject@Qt_5 5.9.0~rc
 _ZN8QtCharts24QVCandlestickModelMapperC2EP7QObject@Qt_5 5.9.0~rc
 _ZN8QtCharts25PolarChartValueAxisRadial11qt_metacallEN11QMetaObject4CallEiPPv@Qt_5 5.10.1
 _ZN8QtCharts25PolarChartValueAxisRadial11qt_metacastEPKc@Qt_5 5.10.1
 _ZN8QtCharts25PolarChartValueAxisRadial16createAxisLabelsERK7QVectorIdE@Qt_5 5.10.1
 _ZN8QtCharts25PolarChartValueAxisRadial16staticMetaObjectE@Qt_5 5.10.1
 _ZN8QtCharts25PolarChartValueAxisRadial22handleTickCountChangedEi@Qt_5 5.10.1
 _ZN8QtCharts25PolarChartValueAxisRadial24handleLabelFormatChangedERK7QString@Qt_5 5.10.1
 _ZN8QtCharts25PolarChartValueAxisRadial27handleMinorTickCountChangedEi@Qt_5 5.10.1
 _ZN8QtCharts25PolarChartValueAxisRadialC1EPNS_10QValueAxisEP13QGraphicsItem@Qt_5 5.10.1
 _ZN8QtCharts25PolarChartValueAxisRadialC2EPNS_10QValueAxisEP13QGraphicsItem@Qt_5 5.10.1
 _ZN8QtCharts25PolarChartValueAxisRadialD0Ev@Qt_5 5.10.1
 _ZN8QtCharts25PolarChartValueAxisRadialD1Ev@Qt_5 5.10.1
 _ZN8QtCharts25PolarChartValueAxisRadialD2Ev@Qt_5 5.10.1
 _ZN8QtCharts25QAbstractBarSeriesPrivate10setVisibleEb@Qt_5 5.10.1
 _ZN8QtCharts25QAbstractBarSeriesPrivate11categorySumEi@Qt_5 5.10.1
 _ZN8QtCharts25QAbstractBarSeriesPrivate11categoryTopEi@Qt_5 5.10.1
 _ZN8QtCharts25QAbstractBarSeriesPrivate11qt_metacallEN11QMetaObject4CallEiPPv@Qt_5 5.10.1
 _ZN8QtCharts25QAbstractBarSeriesPrivate11qt_metacastEPKc@Qt_5 5.10.1
 _ZN8QtCharts25QAbstractBarSeriesPrivate11setBarWidthEd@Qt_5 5.10.1
 _ZN8QtCharts25QAbstractBarSeriesPrivate11updatedBarsEv@Qt_5 5.10.1
 _ZN8QtCharts25QAbstractBarSeriesPrivate12percentageAtEii@Qt_5 5.10.1
 _ZN8QtCharts25QAbstractBarSeriesPrivate13doubleClickedEiPNS_7QBarSetE@Qt_5 5.10.1
 _ZN8QtCharts25QAbstractBarSeriesPrivate13setValueAddedEiiPNS_7QBarSetE@Qt_5 5.10.1
 _ZN8QtCharts25QAbstractBarSeriesPrivate13updatedLayoutEv@Qt_5 5.10.1
 _ZN8QtCharts25QAbstractBarSeriesPrivate14blockBarUpdateEv@Qt_5 5.10.1
 _ZN8QtCharts25QAbstractBarSeriesPrivate14categoryBottomEi@Qt_5 5.10.1
 _ZN8QtCharts25QAbstractBarSeriesPrivate14initializeAxesEv@Qt_5 5.10.1
 _ZN8QtCharts25QAbstractBarSeriesPrivate14maxCategorySumEv@Qt_5 5.10.1
 _ZN8QtCharts25QAbstractBarSeriesPrivate14visibleChangedEv@Qt_5 5.10.1
 _ZN8QtCharts25QAbstractBarSeriesPrivate15initializeThemeEiPNS_10ChartThemeEb@Qt_5 5.10.1
 _ZN8QtCharts25QAbstractBarSeriesPrivate15setValueChangedEiPNS_7QBarSetE@Qt_5 5.10.1
 _ZN8QtCharts25QAbstractBarSeriesPrivate15setValueRemovedEiiPNS_7QBarSetE@Qt_5 5.10.1
 _ZN8QtCharts25QAbstractBarSeriesPrivate16initializeDomainEv@Qt_5 5.10.1
 _ZN8QtCharts25QAbstractBarSeriesPrivate16restructuredBarsEv@Qt_5 5.10.1
 _ZN8QtCharts25QAbstractBarSeriesPrivate16setLabelsVisibleEb@Qt_5 5.10.1
 _ZN8QtCharts25QAbstractBarSeriesPrivate16staticMetaObjectE@Qt_5 5.10.1
 _ZN8QtCharts25QAbstractBarSeriesPrivate17handleSetValueAddEii@Qt_5 5.10.1
 _ZN8QtCharts25QAbstractBarSeriesPrivate18populateCategoriesEPNS_16QBarCategoryAxisE@Qt_5 5.10.1
 _ZN8QtCharts25QAbstractBarSeriesPrivate19absoluteCategorySumEi@Qt_5 5.10.1
 _ZN8QtCharts25QAbstractBarSeriesPrivate19createLegendMarkersEPNS_7QLegendE@Qt_5 5.10.1
 _ZN8QtCharts25QAbstractBarSeriesPrivate20handleSetValueChangeEi@Qt_5 5.10.1
 _ZN8QtCharts25QAbstractBarSeriesPrivate20handleSetValueRemoveEii@Qt_5 5.10.1
 _ZN8QtCharts25QAbstractBarSeriesPrivate20initializeAnimationsE6QFlagsINS_6QChart15AnimationOptionEEiR12QEasingCurve@Qt_5 5.10.1
 _ZN8QtCharts25QAbstractBarSeriesPrivate20labelsVisibleChangedEb@Qt_5 5.10.1
 _ZN8QtCharts25QAbstractBarSeriesPrivate3maxEv@Qt_5 5.10.1
 _ZN8QtCharts25QAbstractBarSeriesPrivate3minEv@Qt_5 5.10.1
 _ZN8QtCharts25QAbstractBarSeriesPrivate3topEv@Qt_5 5.10.1
 _ZN8QtCharts25QAbstractBarSeriesPrivate4maxXEv@Qt_5 5.10.1
 _ZN8QtCharts25QAbstractBarSeriesPrivate4minXEv@Qt_5 5.10.1
 _ZN8QtCharts25QAbstractBarSeriesPrivate6appendE5QListIPNS_7QBarSetEE@Qt_5 5.10.1
 _ZN8QtCharts25QAbstractBarSeriesPrivate6appendEPNS_7QBarSetE@Qt_5 5.10.1
 _ZN8QtCharts25QAbstractBarSeriesPrivate6bottomEv@Qt_5 5.10.1
 _ZN8QtCharts25QAbstractBarSeriesPrivate6insertEiPNS_7QBarSetE@Qt_5 5.10.1
 _ZN8QtCharts25QAbstractBarSeriesPrivate6removeE5QListIPNS_7QBarSetEE@Qt_5 5.10.1
 _ZN8QtCharts25QAbstractBarSeriesPrivate6removeEPNS_7QBarSetE@Qt_5 5.10.1
 _ZN8QtCharts25QAbstractBarSeriesPrivate7clickedEiPNS_7QBarSetE@Qt_5 5.10.1
 _ZN8QtCharts25QAbstractBarSeriesPrivate7pressedEiPNS_7QBarSetE@Qt_5 5.10.1
 _ZN8QtCharts25QAbstractBarSeriesPrivate7valueAtEii@Qt_5 5.10.1
 _ZN8QtCharts25QAbstractBarSeriesPrivate8barsetAtEi@Qt_5 5.10.1
 _ZN8QtCharts25QAbstractBarSeriesPrivate8releasedEiPNS_7QBarSetE@Qt_5 5.10.1
 _ZN8QtCharts25QAbstractBarSeriesPrivateC1EPNS_18QAbstractBarSeriesE@Qt_5 5.10.1
 _ZN8QtCharts25QAbstractBarSeriesPrivateC2EPNS_18QAbstractBarSeriesE@Qt_5 5.10.1
 _ZN8QtCharts25QCandlestickSeriesPrivate11qt_metacallEN11QMetaObject4CallEiPPv@Qt_5 5.10.1
 _ZN8QtCharts25QCandlestickSeriesPrivate11qt_metacastEPKc@Qt_5 5.10.1
 _ZN8QtCharts25QCandlestickSeriesPrivate13doubleClickedEiPNS_15QCandlestickSetE@Qt_5 5.10.1
 _ZN8QtCharts25QCandlestickSeriesPrivate13updatedLayoutEv@Qt_5 5.10.1
 _ZN8QtCharts25QCandlestickSeriesPrivate14initializeAxesEv@Qt_5 5.10.1
 _ZN8QtCharts25QCandlestickSeriesPrivate15initializeThemeEiPNS_10ChartThemeEb@Qt_5 5.10.1
 _ZN8QtCharts25QCandlestickSeriesPrivate16initializeDomainEv@Qt_5 5.10.1
 _ZN8QtCharts25QCandlestickSeriesPrivate16staticMetaObjectE@Qt_5 5.10.1
 _ZN8QtCharts25QCandlestickSeriesPrivate18handleSeriesChangeEPNS_15QAbstractSeriesE@Qt_5 5.10.1
 _ZN8QtCharts25QCandlestickSeriesPrivate18handleSeriesRemoveEPNS_15QAbstractSeriesE@Qt_5 5.10.1
 _ZN8QtCharts25QCandlestickSeriesPrivate18initializeGraphicsEP13QGraphicsItem@Qt_5 5.10.1
 _ZN8QtCharts25QCandlestickSeriesPrivate19createLegendMarkersEPNS_7QLegendE@Qt_5 5.10.1
 _ZN8QtCharts25QCandlestickSeriesPrivate19updatedCandlesticksEv@Qt_5 5.10.1
 _ZN8QtCharts25QCandlestickSeriesPrivate20initializeAnimationsE6QFlagsINS_6QChart15AnimationOptionEEiR12QEasingCurve@Qt_5 5.10.1
 _ZN8QtCharts25QCandlestickSeriesPrivate21populateBarCategoriesEPNS_16QBarCategoryAxisE@Qt_5 5.10.1
 _ZN8QtCharts25QCandlestickSeriesPrivate6appendERK5QListIPNS_15QCandlestickSetEE@Qt_5 5.10.1
 _ZN8QtCharts25QCandlestickSeriesPrivate6insertEiPNS_15QCandlestickSetE@Qt_5 5.10.1
 _ZN8QtCharts25QCandlestickSeriesPrivate6removeERK5QListIPNS_15QCandlestickSetEE@Qt_5 5.10.1
 _ZN8QtCharts25QCandlestickSeriesPrivate7clickedEiPNS_15QCandlestickSetE@Qt_5 5.10.1
 _ZN8QtCharts25QCandlestickSeriesPrivate7pressedEiPNS_15QCandlestickSetE@Qt_5 5.10.1
 _ZN8QtCharts25QCandlestickSeriesPrivate7updatedEv@Qt_5 5.10.1
 _ZN8QtCharts25QCandlestickSeriesPrivate8releasedEiPNS_15QCandlestickSetE@Qt_5 5.10.1
 _ZN8QtCharts25QCandlestickSeriesPrivateC1EPNS_18QCandlestickSeriesE@Qt_5 5.10.1
 _ZN8QtCharts25QCandlestickSeriesPrivateC2EPNS_18QCandlestickSeriesE@Qt_5 5.10.1
 _ZN8QtCharts25QCandlestickSeriesPrivateD0Ev@Qt_5 5.10.1
 _ZN8QtCharts25QCandlestickSeriesPrivateD1Ev@Qt_5 5.10.1
 _ZN8QtCharts25QCandlestickSeriesPrivateD2Ev@Qt_5 5.10.1
 _ZN8QtCharts26PolarChartValueAxisAngular11qt_metacallEN11QMetaObject4CallEiPPv@Qt_5 5.10.1
 _ZN8QtCharts26PolarChartValueAxisAngular11qt_metacastEPKc@Qt_5 5.10.1
 _ZN8QtCharts26PolarChartValueAxisAngular16createAxisLabelsERK7QVectorIdE@Qt_5 5.10.1
 _ZN8QtCharts26PolarChartValueAxisAngular16staticMetaObjectE@Qt_5 5.10.1
 _ZN8QtCharts26PolarChartValueAxisAngular22handleTickCountChangedEi@Qt_5 5.10.1
 _ZN8QtCharts26PolarChartValueAxisAngular24handleLabelFormatChangedERK7QString@Qt_5 5.10.1
 _ZN8QtCharts26PolarChartValueAxisAngular27handleMinorTickCountChangedEi@Qt_5 5.10.1
 _ZN8QtCharts26PolarChartValueAxisAngularC1EPNS_10QValueAxisEP13QGraphicsItem@Qt_5 5.10.1
 _ZN8QtCharts26PolarChartValueAxisAngularC2EPNS_10QValueAxisEP13QGraphicsItem@Qt_5 5.10.1
 _ZN8QtCharts26PolarChartValueAxisAngularD0Ev@Qt_5 5.10.1
 _ZN8QtCharts26PolarChartValueAxisAngularD1Ev@Qt_5 5.10.1
 _ZN8QtCharts26PolarChartValueAxisAngularD2Ev@Qt_5 5.10.1
 _ZN8QtCharts27QBoxPlotLegendMarkerPrivate11qt_metacallEN11QMetaObject4CallEiPPv@Qt_5 5.10.1
 _ZN8QtCharts27QBoxPlotLegendMarkerPrivate11qt_metacastEPKc@Qt_5 5.10.1
 _ZN8QtCharts27QBoxPlotLegendMarkerPrivate13relatedObjectEv@Qt_5 5.10.1
 _ZN8QtCharts27QBoxPlotLegendMarkerPrivate16staticMetaObjectE@Qt_5 5.10.1
 _ZN8QtCharts27QBoxPlotLegendMarkerPrivate6seriesEv@Qt_5 5.10.1
 _ZN8QtCharts27QBoxPlotLegendMarkerPrivate7updatedEv@Qt_5 5.10.1
 _ZN8QtCharts27QBoxPlotLegendMarkerPrivateC1EPNS_20QBoxPlotLegendMarkerEPNS_14QBoxPlotSeriesEPNS_7QLegendE@Qt_5 5.10.1
 _ZN8QtCharts27QBoxPlotLegendMarkerPrivateC2EPNS_20QBoxPlotLegendMarkerEPNS_14QBoxPlotSeriesEPNS_7QLegendE@Qt_5 5.10.1
 _ZN8QtCharts27QBoxPlotLegendMarkerPrivateD0Ev@Qt_5 5.10.1
 _ZN8QtCharts27QBoxPlotLegendMarkerPrivateD1Ev@Qt_5 5.10.1
 _ZN8QtCharts27QBoxPlotLegendMarkerPrivateD2Ev@Qt_5 5.10.1
 _ZN8QtCharts27QHorizontalBarSeriesPrivate16initializeDomainEv@Qt_5 5.10.1
 _ZN8QtCharts27QHorizontalBarSeriesPrivate18initializeGraphicsEP13QGraphicsItem@Qt_5 5.10.1
 _ZN8QtCharts27QHorizontalBarSeriesPrivateC1EPNS_20QHorizontalBarSeriesE@Qt_5 5.10.1
 _ZN8QtCharts27QHorizontalBarSeriesPrivateC2EPNS_20QHorizontalBarSeriesE@Qt_5 5.10.1
 _ZN8QtCharts27QHorizontalPercentBarSeries11qt_metacallEN11QMetaObject4CallEiPPv@Qt_5 5.7.1
 _ZN8QtCharts27QHorizontalPercentBarSeries11qt_metacastEPKc@Qt_5 5.7.1
 _ZN8QtCharts27QHorizontalPercentBarSeries16staticMetaObjectE@Qt_5 5.7.1
 _ZN8QtCharts27QHorizontalPercentBarSeriesC1EP7QObject@Qt_5 5.7.1
 _ZN8QtCharts27QHorizontalPercentBarSeriesC2EP7QObject@Qt_5 5.7.1
 _ZN8QtCharts27QHorizontalPercentBarSeriesD0Ev@Qt_5 5.7.1
 _ZN8QtCharts27QHorizontalPercentBarSeriesD1Ev@Qt_5 5.7.1
 _ZN8QtCharts27QHorizontalPercentBarSeriesD2Ev@Qt_5 5.7.1
 _ZN8QtCharts27QHorizontalStackedBarSeries11qt_metacallEN11QMetaObject4CallEiPPv@Qt_5 5.7.1
 _ZN8QtCharts27QHorizontalStackedBarSeries11qt_metacastEPKc@Qt_5 5.7.1
 _ZN8QtCharts27QHorizontalStackedBarSeries16staticMetaObjectE@Qt_5 5.7.1
 _ZN8QtCharts27QHorizontalStackedBarSeriesC1EP7QObject@Qt_5 5.7.1
 _ZN8QtCharts27QHorizontalStackedBarSeriesC2EP7QObject@Qt_5 5.7.1
 _ZN8QtCharts27QHorizontalStackedBarSeriesD0Ev@Qt_5 5.7.1
 _ZN8QtCharts27QHorizontalStackedBarSeriesD1Ev@Qt_5 5.7.1
 _ZN8QtCharts27QHorizontalStackedBarSeriesD2Ev@Qt_5 5.7.1
 _ZN8QtCharts28PolarChartCategoryAxisRadial11qt_metacallEN11QMetaObject4CallEiPPv@Qt_5 5.10.1
 _ZN8QtCharts28PolarChartCategoryAxisRadial11qt_metacastEPKc@Qt_5 5.10.1
 _ZN8QtCharts28PolarChartCategoryAxisRadial16createAxisLabelsERK7QVectorIdE@Qt_5 5.10.1
 _ZN8QtCharts28PolarChartCategoryAxisRadial16staticMetaObjectE@Qt_5 5.10.1
 _ZN8QtCharts28PolarChartCategoryAxisRadial23handleCategoriesChangedEv@Qt_5 5.10.1
 _ZN8QtCharts28PolarChartCategoryAxisRadialC1EPNS_13QCategoryAxisEP13QGraphicsItem@Qt_5 5.10.1
 _ZN8QtCharts28PolarChartCategoryAxisRadialC2EPNS_13QCategoryAxisEP13QGraphicsItem@Qt_5 5.10.1
 _ZN8QtCharts28PolarChartCategoryAxisRadialD0Ev@Qt_5 5.10.1
 _ZN8QtCharts28PolarChartCategoryAxisRadialD1Ev@Qt_5 5.10.1
 _ZN8QtCharts28PolarChartCategoryAxisRadialD2Ev@Qt_5 5.10.1
 _ZN8QtCharts28PolarChartDateTimeAxisRadial11qt_metacallEN11QMetaObject4CallEiPPv@Qt_5 5.10.1
 _ZN8QtCharts28PolarChartDateTimeAxisRadial11qt_metacastEPKc@Qt_5 5.10.1
 _ZN8QtCharts28PolarChartDateTimeAxisRadial16createAxisLabelsERK7QVectorIdE@Qt_5 5.10.1
 _ZN8QtCharts28PolarChartDateTimeAxisRadial16staticMetaObjectE@Qt_5 5.10.1
 _ZN8QtCharts28PolarChartDateTimeAxisRadial19handleFormatChangedERK7QString@Qt_5 5.10.1
 _ZN8QtCharts28PolarChartDateTimeAxisRadial22handleTickCountChangedEi@Qt_5 5.10.1
 _ZN8QtCharts28PolarChartDateTimeAxisRadialC1EPNS_13QDateTimeAxisEP13QGraphicsItem@Qt_5 5.10.1
 _ZN8QtCharts28PolarChartDateTimeAxisRadialC2EPNS_13QDateTimeAxisEP13QGraphicsItem@Qt_5 5.10.1
 _ZN8QtCharts28PolarChartDateTimeAxisRadialD0Ev@Qt_5 5.10.1
 _ZN8QtCharts28PolarChartDateTimeAxisRadialD1Ev@Qt_5 5.10.1
 _ZN8QtCharts28PolarChartDateTimeAxisRadialD2Ev@Qt_5 5.10.1
 _ZN8QtCharts28PolarChartLogValueAxisRadial11qt_metacallEN11QMetaObject4CallEiPPv@Qt_5 5.10.1
 _ZN8QtCharts28PolarChartLogValueAxisRadial11qt_metacastEPKc@Qt_5 5.10.1
 _ZN8QtCharts28PolarChartLogValueAxisRadial16createAxisLabelsERK7QVectorIdE@Qt_5 5.10.1
 _ZN8QtCharts28PolarChartLogValueAxisRadial16staticMetaObjectE@Qt_5 5.10.1
 _ZN8QtCharts28PolarChartLogValueAxisRadial17handleBaseChangedEd@Qt_5 5.10.1
 _ZN8QtCharts28PolarChartLogValueAxisRadial24handleLabelFormatChangedERK7QString@Qt_5 5.10.1
 _ZN8QtCharts28PolarChartLogValueAxisRadialC1EPNS_13QLogValueAxisEP13QGraphicsItem@Qt_5 5.10.1
 _ZN8QtCharts28PolarChartLogValueAxisRadialC2EPNS_13QLogValueAxisEP13QGraphicsItem@Qt_5 5.10.1
 _ZN8QtCharts28PolarChartLogValueAxisRadialD0Ev@Qt_5 5.10.1
 _ZN8QtCharts28PolarChartLogValueAxisRadialD1Ev@Qt_5 5.10.1
 _ZN8QtCharts28PolarChartLogValueAxisRadialD2Ev@Qt_5 5.10.1
 _ZN8QtCharts29CandlestickBodyWicksAnimation10setEndDataERKNS_15CandlestickDataE@Qt_5 5.10.1
 _ZN8QtCharts29CandlestickBodyWicksAnimation11qt_metacallEN11QMetaObject4CallEiPPv@Qt_5 5.10.1
 _ZN8QtCharts29CandlestickBodyWicksAnimation11qt_metacastEPKc@Qt_5 5.10.1
 _ZN8QtCharts29CandlestickBodyWicksAnimation12setStartDataERKNS_15CandlestickDataE@Qt_5 5.10.1
 _ZN8QtCharts29CandlestickBodyWicksAnimation16staticMetaObjectE@Qt_5 5.10.1
 _ZN8QtCharts29CandlestickBodyWicksAnimation18updateCurrentValueERK8QVariant@Qt_5 5.10.1
 _ZN8QtCharts29CandlestickBodyWicksAnimation5setupERKNS_15CandlestickDataES3_@Qt_5 5.10.1
 _ZN8QtCharts29CandlestickBodyWicksAnimationC1EPNS_11CandlestickEPNS_20CandlestickAnimationEiR12QEasingCurve@Qt_5 5.10.1
 _ZN8QtCharts29CandlestickBodyWicksAnimationC2EPNS_11CandlestickEPNS_20CandlestickAnimationEiR12QEasingCurve@Qt_5 5.10.1
 _ZN8QtCharts29CandlestickBodyWicksAnimationD0Ev@Qt_5 5.10.1
 _ZN8QtCharts29CandlestickBodyWicksAnimationD1Ev@Qt_5 5.10.1
 _ZN8QtCharts29CandlestickBodyWicksAnimationD2Ev@Qt_5 5.10.1
 _ZN8QtCharts29HorizontalPercentBarChartItem11qt_metacallEN11QMetaObject4CallEiPPv@Qt_5 5.10.1
 _ZN8QtCharts29HorizontalPercentBarChartItem11qt_metacastEPKc@Qt_5 5.10.1
 _ZN8QtCharts29HorizontalPercentBarChartItem12topLeftPointEidd@Qt_5 5.10.1
 _ZN8QtCharts29HorizontalPercentBarChartItem15calculateLayoutEv@Qt_5 5.10.1
 _ZN8QtCharts29HorizontalPercentBarChartItem15markLabelsDirtyEPNS_7QBarSetEii@Qt_5 5.10.1
 _ZN8QtCharts29HorizontalPercentBarChartItem16bottomRightPointEidd@Qt_5 5.10.1
 _ZN8QtCharts29HorizontalPercentBarChartItem16initializeLayoutEiiib@Qt_5 5.10.1
 _ZN8QtCharts29HorizontalPercentBarChartItem16staticMetaObjectE@Qt_5 5.10.1
 _ZN8QtCharts29HorizontalPercentBarChartItem17generateLabelTextEiid@Qt_5 5.10.1
 _ZN8QtCharts29HorizontalPercentBarChartItemC1EPNS_18QAbstractBarSeriesEP13QGraphicsItem@Qt_5 5.10.1
 _ZN8QtCharts29HorizontalPercentBarChartItemC2EPNS_18QAbstractBarSeriesEP13QGraphicsItem@Qt_5 5.10.1
 _ZN8QtCharts29HorizontalStackedBarChartItem11qt_metacallEN11QMetaObject4CallEiPPv@Qt_5 5.10.1
 _ZN8QtCharts29HorizontalStackedBarChartItem11qt_metacastEPKc@Qt_5 5.10.1
 _ZN8QtCharts29HorizontalStackedBarChartItem12topLeftPointEidd@Qt_5 5.10.1
 _ZN8QtCharts29HorizontalStackedBarChartItem15calculateLayoutEv@Qt_5 5.10.1
 _ZN8QtCharts29HorizontalStackedBarChartItem16bottomRightPointEidd@Qt_5 5.10.1
 _ZN8QtCharts29HorizontalStackedBarChartItem16initializeLayoutEiiib@Qt_5 5.10.1
 _ZN8QtCharts29HorizontalStackedBarChartItem16staticMetaObjectE@Qt_5 5.10.1
 _ZN8QtCharts29HorizontalStackedBarChartItemC1EPNS_18QAbstractBarSeriesEP13QGraphicsItem@Qt_5 5.10.1
 _ZN8QtCharts29HorizontalStackedBarChartItemC2EPNS_18QAbstractBarSeriesEP13QGraphicsItem@Qt_5 5.10.1
 _ZN8QtCharts29PolarChartCategoryAxisAngular11qt_metacallEN11QMetaObject4CallEiPPv@Qt_5 5.10.1
 _ZN8QtCharts29PolarChartCategoryAxisAngular11qt_metacastEPKc@Qt_5 5.10.1
 _ZN8QtCharts29PolarChartCategoryAxisAngular16createAxisLabelsERK7QVectorIdE@Qt_5 5.10.1
 _ZN8QtCharts29PolarChartCategoryAxisAngular16staticMetaObjectE@Qt_5 5.10.1
 _ZN8QtCharts29PolarChartCategoryAxisAngular23handleCategoriesChangedEv@Qt_5 5.10.1
 _ZN8QtCharts29PolarChartCategoryAxisAngularC1EPNS_13QCategoryAxisEP13QGraphicsItem@Qt_5 5.10.1
 _ZN8QtCharts29PolarChartCategoryAxisAngularC2EPNS_13QCategoryAxisEP13QGraphicsItem@Qt_5 5.10.1
 _ZN8QtCharts29PolarChartCategoryAxisAngularD0Ev@Qt_5 5.10.1
 _ZN8QtCharts29PolarChartCategoryAxisAngularD1Ev@Qt_5 5.10.1
 _ZN8QtCharts29PolarChartCategoryAxisAngularD2Ev@Qt_5 5.10.1
 _ZN8QtCharts29PolarChartDateTimeAxisAngular11qt_metacallEN11QMetaObject4CallEiPPv@Qt_5 5.10.1
 _ZN8QtCharts29PolarChartDateTimeAxisAngular11qt_metacastEPKc@Qt_5 5.10.1
 _ZN8QtCharts29PolarChartDateTimeAxisAngular16createAxisLabelsERK7QVectorIdE@Qt_5 5.10.1
 _ZN8QtCharts29PolarChartDateTimeAxisAngular16staticMetaObjectE@Qt_5 5.10.1
 _ZN8QtCharts29PolarChartDateTimeAxisAngular19handleFormatChangedERK7QString@Qt_5 5.10.1
 _ZN8QtCharts29PolarChartDateTimeAxisAngular22handleTickCountChangedEi@Qt_5 5.10.1
 _ZN8QtCharts29PolarChartDateTimeAxisAngularC1EPNS_13QDateTimeAxisEP13QGraphicsItem@Qt_5 5.10.1
 _ZN8QtCharts29PolarChartDateTimeAxisAngularC2EPNS_13QDateTimeAxisEP13QGraphicsItem@Qt_5 5.10.1
 _ZN8QtCharts29PolarChartDateTimeAxisAngularD0Ev@Qt_5 5.10.1
 _ZN8QtCharts29PolarChartDateTimeAxisAngularD1Ev@Qt_5 5.10.1
 _ZN8QtCharts29PolarChartDateTimeAxisAngularD2Ev@Qt_5 5.10.1
 _ZN8QtCharts29PolarChartLogValueAxisAngular11qt_metacallEN11QMetaObject4CallEiPPv@Qt_5 5.10.1
 _ZN8QtCharts29PolarChartLogValueAxisAngular11qt_metacastEPKc@Qt_5 5.10.1
 _ZN8QtCharts29PolarChartLogValueAxisAngular16createAxisLabelsERK7QVectorIdE@Qt_5 5.10.1
 _ZN8QtCharts29PolarChartLogValueAxisAngular16staticMetaObjectE@Qt_5 5.10.1
 _ZN8QtCharts29PolarChartLogValueAxisAngular17handleBaseChangedEd@Qt_5 5.10.1
 _ZN8QtCharts29PolarChartLogValueAxisAngular24handleLabelFormatChangedERK7QString@Qt_5 5.10.1
 _ZN8QtCharts29PolarChartLogValueAxisAngularC1EPNS_13QLogValueAxisEP13QGraphicsItem@Qt_5 5.10.1
 _ZN8QtCharts29PolarChartLogValueAxisAngularC2EPNS_13QLogValueAxisEP13QGraphicsItem@Qt_5 5.10.1
 _ZN8QtCharts29PolarChartLogValueAxisAngularD0Ev@Qt_5 5.10.1
 _ZN8QtCharts29PolarChartLogValueAxisAngularD1Ev@Qt_5 5.10.1
 _ZN8QtCharts29PolarChartLogValueAxisAngularD2Ev@Qt_5 5.10.1
 _ZN8QtCharts30QCandlestickModelMapperPrivate10insertDataEii@Qt_5 5.10.1
 _ZN8QtCharts30QCandlestickModelMapperPrivate10lowChangedEv@Qt_5 5.10.1
 _ZN8QtCharts30QCandlestickModelMapperPrivate10removeDataEii@Qt_5 5.10.1
 _ZN8QtCharts30QCandlestickModelMapperPrivate11highChangedEv@Qt_5 5.10.1
 _ZN8QtCharts30QCandlestickModelMapperPrivate11openChangedEv@Qt_5 5.10.1
 _ZN8QtCharts30QCandlestickModelMapperPrivate11qt_metacallEN11QMetaObject4CallEiPPv@Qt_5 5.10.1
 _ZN8QtCharts30QCandlestickModelMapperPrivate11qt_metacastEPKc@Qt_5 5.10.1
 _ZN8QtCharts30QCandlestickModelMapperPrivate12closeChangedEv@Qt_5 5.10.1
 _ZN8QtCharts30QCandlestickModelMapperPrivate14candlestickSetE11QModelIndex@Qt_5 5.10.1
 _ZN8QtCharts30QCandlestickModelMapperPrivate14modelDestroyedEv@Qt_5 5.10.1
 _ZN8QtCharts30QCandlestickModelMapperPrivate15seriesDestroyedEv@Qt_5 5.10.1
 _ZN8QtCharts30QCandlestickModelMapperPrivate16modelDataUpdatedE11QModelIndexS1_@Qt_5 5.10.1
 _ZN8QtCharts30QCandlestickModelMapperPrivate16modelRowsRemovedE11QModelIndexii@Qt_5 5.10.1
 _ZN8QtCharts30QCandlestickModelMapperPrivate16staticMetaObjectE@Qt_5 5.10.1
 _ZN8QtCharts30QCandlestickModelMapperPrivate16timestampChangedEv@Qt_5 5.10.1
 _ZN8QtCharts30QCandlestickModelMapperPrivate17blockModelSignalsEb@Qt_5 5.10.1
 _ZN8QtCharts30QCandlestickModelMapperPrivate17modelRowsInsertedE11QModelIndexii@Qt_5 5.10.1
 _ZN8QtCharts30QCandlestickModelMapperPrivate18blockSeriesSignalsEb@Qt_5 5.10.1
 _ZN8QtCharts30QCandlestickModelMapperPrivate19modelColumnsRemovedE11QModelIndexii@Qt_5 5.10.1
 _ZN8QtCharts30QCandlestickModelMapperPrivate20candlestickSetsAddedERK5QListIPNS_15QCandlestickSetEE@Qt_5 5.10.1
 _ZN8QtCharts30QCandlestickModelMapperPrivate20modelColumnsInsertedE11QModelIndexii@Qt_5 5.10.1
 _ZN8QtCharts30QCandlestickModelMapperPrivate21candlestickModelIndexEii@Qt_5 5.10.1
 _ZN8QtCharts30QCandlestickModelMapperPrivate21candlestickSetChangedEv@Qt_5 5.10.1
 _ZN8QtCharts30QCandlestickModelMapperPrivate21lastSetSectionChangedEv@Qt_5 5.10.1
 _ZN8QtCharts30QCandlestickModelMapperPrivate22candlestickSetsRemovedERK5QListIPNS_15QCandlestickSetEE@Qt_5 5.10.1
 _ZN8QtCharts30QCandlestickModelMapperPrivate22firstSetSectionChangedEv@Qt_5 5.10.1
 _ZN8QtCharts30QCandlestickModelMapperPrivate22modelHeaderDataUpdatedEN2Qt11OrientationEii@Qt_5 5.10.1
 _ZN8QtCharts30QCandlestickModelMapperPrivate30initializeCandlestickFromModelEv@Qt_5 5.10.1
 _ZN8QtCharts30QCandlestickModelMapperPrivateC1EPNS_23QCandlestickModelMapperE@Qt_5 5.10.1
 _ZN8QtCharts30QCandlestickModelMapperPrivateC2EPNS_23QCandlestickModelMapperE@Qt_5 5.10.1
 _ZN8QtCharts31QCandlestickLegendMarkerPrivate11qt_metacallEN11QMetaObject4CallEiPPv@Qt_5 5.10.1
 _ZN8QtCharts31QCandlestickLegendMarkerPrivate11qt_metacastEPKc@Qt_5 5.10.1
 _ZN8QtCharts31QCandlestickLegendMarkerPrivate13relatedObjectEv@Qt_5 5.10.1
 _ZN8QtCharts31QCandlestickLegendMarkerPrivate16staticMetaObjectE@Qt_5 5.10.1
 _ZN8QtCharts31QCandlestickLegendMarkerPrivate6seriesEv@Qt_5 5.10.1
 _ZN8QtCharts31QCandlestickLegendMarkerPrivate7updatedEv@Qt_5 5.10.1
 _ZN8QtCharts31QCandlestickLegendMarkerPrivateC1EPNS_24QCandlestickLegendMarkerEPNS_18QCandlestickSeriesEPNS_7QLegendE@Qt_5 5.10.1
 _ZN8QtCharts31QCandlestickLegendMarkerPrivateC2EPNS_24QCandlestickLegendMarkerEPNS_18QCandlestickSeriesEPNS_7QLegendE@Qt_5 5.10.1
 _ZN8QtCharts31QCandlestickLegendMarkerPrivateD0Ev@Qt_5 5.10.1
 _ZN8QtCharts31QCandlestickLegendMarkerPrivateD1Ev@Qt_5 5.10.1
 _ZN8QtCharts31QCandlestickLegendMarkerPrivateD2Ev@Qt_5 5.10.1
 _ZN8QtCharts34QHorizontalPercentBarSeriesPrivate16initializeDomainEv@Qt_5 5.10.1
 _ZN8QtCharts34QHorizontalPercentBarSeriesPrivate18initializeGraphicsEP13QGraphicsItem@Qt_5 5.10.1
 _ZN8QtCharts34QHorizontalPercentBarSeriesPrivateC1EPNS_27QHorizontalPercentBarSeriesE@Qt_5 5.10.1
 _ZN8QtCharts34QHorizontalPercentBarSeriesPrivateC2EPNS_27QHorizontalPercentBarSeriesE@Qt_5 5.10.1
 _ZN8QtCharts34QHorizontalStackedBarSeriesPrivate16initializeDomainEv@Qt_5 5.10.1
 _ZN8QtCharts34QHorizontalStackedBarSeriesPrivate18initializeGraphicsEP13QGraphicsItem@Qt_5 5.10.1
 _ZN8QtCharts34QHorizontalStackedBarSeriesPrivateC1EPNS_27QHorizontalStackedBarSeriesE@Qt_5 5.10.1
 _ZN8QtCharts34QHorizontalStackedBarSeriesPrivateC2EPNS_27QHorizontalStackedBarSeriesE@Qt_5 5.10.1
 _ZN8QtCharts3Bar11qt_metacallEN11QMetaObject4CallEiPPv@Qt_5 5.10.1
 _ZN8QtCharts3Bar11qt_metacastEPKc@Qt_5 5.10.1
 _ZN8QtCharts3Bar13doubleClickedEiPNS_7QBarSetE@Qt_5 5.10.1
 _ZN8QtCharts3Bar15hoverEnterEventEP24QGraphicsSceneHoverEvent@Qt_5 5.10.1
 _ZN8QtCharts3Bar15hoverLeaveEventEP24QGraphicsSceneHoverEvent@Qt_5 5.10.1
 _ZN8QtCharts3Bar15mousePressEventEP24QGraphicsSceneMouseEvent@Qt_5 5.10.1
 _ZN8QtCharts3Bar16staticMetaObjectE@Qt_5 5.10.1
 _ZN8QtCharts3Bar17mouseReleaseEventEP24QGraphicsSceneMouseEvent@Qt_5 5.10.1
 _ZN8QtCharts3Bar21mouseDoubleClickEventEP24QGraphicsSceneMouseEvent@Qt_5 5.10.1
 _ZN8QtCharts3Bar5paintEP8QPainterPK24QStyleOptionGraphicsItemP7QWidget@Qt_5 5.10.1
 _ZN8QtCharts3Bar7clickedEiPNS_7QBarSetE@Qt_5 5.10.1
 _ZN8QtCharts3Bar7hoveredEbiPNS_7QBarSetE@Qt_5 5.10.1
 _ZN8QtCharts3Bar7pressedEiPNS_7QBarSetE@Qt_5 5.10.1
 _ZN8QtCharts3Bar8releasedEiPNS_7QBarSetE@Qt_5 5.10.1
 _ZN8QtCharts3BarC1EPNS_7QBarSetEP13QGraphicsItem@Qt_5 5.10.1
 _ZN8QtCharts3BarC2EPNS_7QBarSetEP13QGraphicsItem@Qt_5 5.10.1
 _ZN8QtCharts3BarD0Ev@Qt_5 5.10.1
 _ZN8QtCharts3BarD1Ev@Qt_5 5.10.1
 _ZN8QtCharts3BarD2Ev@Qt_5 5.10.1
 _ZN8QtCharts6QChart10mapToValueERK7QPointFPNS_15QAbstractSeriesE@Qt_5 5.7.1
 _ZN8QtCharts6QChart10removeAxisEPNS_13QAbstractAxisE@Qt_5 5.7.1
 _ZN8QtCharts6QChart10setMarginsERK8QMargins@Qt_5 5.7.1
 _ZN8QtCharts6QChart11qt_metacallEN11QMetaObject4CallEiPPv@Qt_5 5.7.1
 _ZN8QtCharts6QChart11qt_metacastEPKc@Qt_5 5.7.1
 _ZN8QtCharts6QChart12removeSeriesEPNS_15QAbstractSeriesE@Qt_5 5.7.1
 _ZN8QtCharts6QChart12setTitleFontERK5QFont@Qt_5 5.7.1
 _ZN8QtCharts6QChart13mapToPositionERK7QPointFPNS_15QAbstractSeriesE@Qt_5 5.7.1
 _ZN8QtCharts6QChart13setTitleBrushERK6QBrush@Qt_5 5.7.1
 _ZN8QtCharts6QChart15plotAreaChangedERK6QRectF@Qt_5 5.7.1
 _ZN8QtCharts6QChart15removeAllSeriesEv@Qt_5 5.7.1
 _ZN8QtCharts6QChart16setBackgroundPenERK4QPen@Qt_5 5.7.1
 _ZN8QtCharts6QChart16staticMetaObjectE@Qt_5 5.7.1
 _ZN8QtCharts6QChart17createDefaultAxesEv@Qt_5 5.7.1
 _ZN8QtCharts6QChart18setBackgroundBrushERK6QBrush@Qt_5 5.7.1
 _ZN8QtCharts6QChart18setLocalizeNumbersEb@Qt_5 5.7.1
 _ZN8QtCharts6QChart19setAnimationOptionsE6QFlagsINS0_15AnimationOptionEE@Qt_5 5.7.1
 _ZN8QtCharts6QChart20setAnimationDurationEi@Qt_5 5.7.1
 _ZN8QtCharts6QChart20setBackgroundVisibleEb@Qt_5 5.7.1
 _ZN8QtCharts6QChart20setDropShadowEnabledEb@Qt_5 5.7.1
 _ZN8QtCharts6QChart22setBackgroundRoundnessEd@Qt_5 5.7.1
 _ZN8QtCharts6QChart23setAnimationEasingCurveERK12QEasingCurve@Qt_5 5.7.1
 _ZN8QtCharts6QChart24setPlotAreaBackgroundPenERK4QPen@Qt_5 5.7.1
 _ZN8QtCharts6QChart26setPlotAreaBackgroundBrushERK6QBrush@Qt_5 5.7.1
 _ZN8QtCharts6QChart28setPlotAreaBackgroundVisibleEb@Qt_5 5.7.1
 _ZN8QtCharts6QChart4zoomEd@Qt_5 5.7.1
 _ZN8QtCharts6QChart6scrollEdd@Qt_5 5.7.1
 _ZN8QtCharts6QChart6zoomInERK6QRectF@Qt_5 5.7.1
 _ZN8QtCharts6QChart6zoomInEv@Qt_5 5.7.1
 _ZN8QtCharts6QChart7addAxisEPNS_13QAbstractAxisE6QFlagsIN2Qt13AlignmentFlagEE@Qt_5 5.7.1
 _ZN8QtCharts6QChart7zoomOutEv@Qt_5 5.7.1
 _ZN8QtCharts6QChart8isZoomedEv@Qt_5 5.7.1
 _ZN8QtCharts6QChart8setAxisXEPNS_13QAbstractAxisEPNS_15QAbstractSeriesE@Qt_5 5.7.1
 _ZN8QtCharts6QChart8setAxisYEPNS_13QAbstractAxisEPNS_15QAbstractSeriesE@Qt_5 5.7.1
 _ZN8QtCharts6QChart8setThemeENS0_10ChartThemeE@Qt_5 5.7.1
 _ZN8QtCharts6QChart8setTitleERK7QString@Qt_5 5.7.1
 _ZN8QtCharts6QChart9addSeriesEPNS_15QAbstractSeriesE@Qt_5 5.7.1
 _ZN8QtCharts6QChart9setLocaleERK7QLocale@Qt_5 5.7.1
 _ZN8QtCharts6QChart9zoomResetEv@Qt_5 5.7.1
 _ZN8QtCharts6QChartC1ENS0_9ChartTypeEP13QGraphicsItem6QFlagsIN2Qt10WindowTypeEE@Qt_5 5.7.1
 _ZN8QtCharts6QChartC1EP13QGraphicsItem6QFlagsIN2Qt10WindowTypeEE@Qt_5 5.7.1
 _ZN8QtCharts6QChartC2ENS0_9ChartTypeEP13QGraphicsItem6QFlagsIN2Qt10WindowTypeEE@Qt_5 5.7.1
 _ZN8QtCharts6QChartC2EP13QGraphicsItem6QFlagsIN2Qt10WindowTypeEE@Qt_5 5.7.1
 _ZN8QtCharts6QChartD0Ev@Qt_5 5.7.1
 _ZN8QtCharts6QChartD1Ev@Qt_5 5.7.1
 _ZN8QtCharts6QChartD2Ev@Qt_5 5.7.1
 _ZN8QtCharts7QBarSet10labelColorEv@Qt_5 5.7.1
 _ZN8QtCharts7QBarSet10penChangedEv@Qt_5 5.7.1
 _ZN8QtCharts7QBarSet11borderColorEv@Qt_5 5.7.1
 _ZN8QtCharts7QBarSet11qt_metacallEN11QMetaObject4CallEiPPv@Qt_5 5.7.1
 _ZN8QtCharts7QBarSet11qt_metacastEPKc@Qt_5 5.7.1
 _ZN8QtCharts7QBarSet11valuesAddedEii@Qt_5 5.7.1
 _ZN8QtCharts7QBarSet12brushChangedEv@Qt_5 5.7.1
 _ZN8QtCharts7QBarSet12colorChangedE6QColor@Qt_5 5.7.1
 _ZN8QtCharts7QBarSet12labelChangedEv@Qt_5 5.7.1
 _ZN8QtCharts7QBarSet12setLabelFontERK5QFont@Qt_5 5.7.1
 _ZN8QtCharts7QBarSet12valueChangedEi@Qt_5 5.7.1
 _ZN8QtCharts7QBarSet13doubleClickedEi@Qt_5 5.7.1
 _ZN8QtCharts7QBarSet13setLabelBrushERK6QBrush@Qt_5 5.7.1
 _ZN8QtCharts7QBarSet13setLabelColorE6QColor@Qt_5 5.7.1
 _ZN8QtCharts7QBarSet13valuesRemovedEii@Qt_5 5.7.1
 _ZN8QtCharts7QBarSet14setBorderColorE6QColor@Qt_5 5.7.1
 _ZN8QtCharts7QBarSet16labelFontChangedEv@Qt_5 5.7.1
 _ZN8QtCharts7QBarSet16staticMetaObjectE@Qt_5 5.7.1
 _ZN8QtCharts7QBarSet17labelBrushChangedEv@Qt_5 5.7.1
 _ZN8QtCharts7QBarSet17labelColorChangedE6QColor@Qt_5 5.7.1
 _ZN8QtCharts7QBarSet18borderColorChangedE6QColor@Qt_5 5.7.1
 _ZN8QtCharts7QBarSet5colorEv@Qt_5 5.7.1
 _ZN8QtCharts7QBarSet6appendERK5QListIdE@Qt_5 5.7.1
 _ZN8QtCharts7QBarSet6appendEd@Qt_5 5.7.1
 _ZN8QtCharts7QBarSet6insertEid@Qt_5 5.7.1
 _ZN8QtCharts7QBarSet6removeEii@Qt_5 5.7.1
 _ZN8QtCharts7QBarSet6setPenERK4QPen@Qt_5 5.7.1
 _ZN8QtCharts7QBarSet7clickedEi@Qt_5 5.7.1
 _ZN8QtCharts7QBarSet7hoveredEbi@Qt_5 5.7.1
 _ZN8QtCharts7QBarSet7pressedEi@Qt_5 5.7.1
 _ZN8QtCharts7QBarSet7replaceEid@Qt_5 5.7.1
 _ZN8QtCharts7QBarSet8releasedEi@Qt_5 5.7.1
 _ZN8QtCharts7QBarSet8setBrushERK6QBrush@Qt_5 5.7.1
 _ZN8QtCharts7QBarSet8setColorE6QColor@Qt_5 5.7.1
 _ZN8QtCharts7QBarSet8setLabelE7QString@Qt_5 5.7.1
 _ZN8QtCharts7QBarSetC1E7QStringP7QObject@Qt_5 5.7.1
 _ZN8QtCharts7QBarSetC2E7QStringP7QObject@Qt_5 5.7.1
 _ZN8QtCharts7QBarSetD0Ev@Qt_5 5.7.1
 _ZN8QtCharts7QBarSetD1Ev@Qt_5 5.7.1
 _ZN8QtCharts7QBarSetD2Ev@Qt_5 5.7.1
 _ZN8QtCharts7QBarSetlsERKd@Qt_5 5.7.1
 _ZN8QtCharts7QBoxSet10penChangedEv@Qt_5 5.7.1
 _ZN8QtCharts7QBoxSet11qt_metacallEN11QMetaObject4CallEiPPv@Qt_5 5.7.1
 _ZN8QtCharts7QBoxSet11qt_metacastEPKc@Qt_5 5.7.1
 _ZN8QtCharts7QBoxSet12brushChangedEv@Qt_5 5.7.1
 _ZN8QtCharts7QBoxSet12valueChangedEi@Qt_5 5.7.1
 _ZN8QtCharts7QBoxSet13doubleClickedEv@Qt_5 5.7.1
 _ZN8QtCharts7QBoxSet13valuesChangedEv@Qt_5 5.7.1
 _ZN8QtCharts7QBoxSet16staticMetaObjectE@Qt_5 5.7.1
 _ZN8QtCharts7QBoxSet5clearEv@Qt_5 5.7.1
 _ZN8QtCharts7QBoxSet6appendERK5QListIdE@Qt_5 5.7.1
 _ZN8QtCharts7QBoxSet6appendEd@Qt_5 5.7.1
 _ZN8QtCharts7QBoxSet6setPenERK4QPen@Qt_5 5.7.1
 _ZN8QtCharts7QBoxSet7clearedEv@Qt_5 5.7.1
 _ZN8QtCharts7QBoxSet7clickedEv@Qt_5 5.7.1
 _ZN8QtCharts7QBoxSet7hoveredEb@Qt_5 5.7.1
 _ZN8QtCharts7QBoxSet7pressedEv@Qt_5 5.7.1
 _ZN8QtCharts7QBoxSet8releasedEv@Qt_5 5.7.1
 _ZN8QtCharts7QBoxSet8setBrushERK6QBrush@Qt_5 5.7.1
 _ZN8QtCharts7QBoxSet8setLabelE7QString@Qt_5 5.7.1
 _ZN8QtCharts7QBoxSet8setValueEid@Qt_5 5.7.1
 _ZN8QtCharts7QBoxSetC1E7QStringP7QObject@Qt_5 5.7.1
 _ZN8QtCharts7QBoxSetC1Eddddd7QStringP7QObject@Qt_5 5.7.1
 _ZN8QtCharts7QBoxSetC2E7QStringP7QObject@Qt_5 5.7.1
 _ZN8QtCharts7QBoxSetC2Eddddd7QStringP7QObject@Qt_5 5.7.1
 _ZN8QtCharts7QBoxSetD0Ev@Qt_5 5.7.1
 _ZN8QtCharts7QBoxSetD1Ev@Qt_5 5.7.1
 _ZN8QtCharts7QBoxSetD2Ev@Qt_5 5.7.1
 _ZN8QtCharts7QBoxSetlsERKd@Qt_5 5.7.1
 _ZN8QtCharts7QLegend11borderColorEv@Qt_5 5.7.1
 _ZN8QtCharts7QLegend11fontChangedE5QFont@Qt_5 5.7.1
 _ZN8QtCharts7QLegend11qt_metacallEN11QMetaObject4CallEiPPv@Qt_5 5.7.1
 _ZN8QtCharts7QLegend11qt_metacastEPKc@Qt_5 5.7.1
 _ZN8QtCharts7QLegend12colorChangedE6QColor@Qt_5 5.7.1
 _ZN8QtCharts7QLegend12setAlignmentE6QFlagsIN2Qt13AlignmentFlagEE@Qt_5 5.7.1
 _ZN8QtCharts7QLegend13attachToChartEv@Qt_5 5.7.1
 _ZN8QtCharts7QLegend13setLabelBrushERK6QBrush@Qt_5 5.7.1
 _ZN8QtCharts7QLegend13setLabelColorE6QColor@Qt_5 5.7.1
 _ZN8QtCharts7QLegend14reverseMarkersEv@Qt_5 5.7.1
 _ZN8QtCharts7QLegend14setBorderColorE6QColor@Qt_5 5.7.1
 _ZN8QtCharts7QLegend14setMarkerShapeENS0_11MarkerShapeE@Qt_5 5.9.0~rc
 _ZN8QtCharts7QLegend15detachFromChartEv@Qt_5 5.7.1
 _ZN8QtCharts7QLegend15setShowToolTipsEb@Qt_5 5.7.1
 _ZN8QtCharts7QLegend16staticMetaObjectE@Qt_5 5.7.1
 _ZN8QtCharts7QLegend17isAttachedToChartEv@Qt_5 5.7.1
 _ZN8QtCharts7QLegend17labelColorChangedE6QColor@Qt_5 5.7.1
 _ZN8QtCharts7QLegend17setReverseMarkersEb@Qt_5 5.7.1
 _ZN8QtCharts7QLegend18borderColorChangedE6QColor@Qt_5 5.7.1
 _ZN8QtCharts7QLegend18markerShapeChangedENS0_11MarkerShapeE@Qt_5 5.9.0~rc
 _ZN8QtCharts7QLegend19showToolTipsChangedEb@Qt_5 5.7.1
 _ZN8QtCharts7QLegend20setBackgroundVisibleEb@Qt_5 5.7.1
 _ZN8QtCharts7QLegend21reverseMarkersChangedEb@Qt_5 5.7.1
 _ZN8QtCharts7QLegend24backgroundVisibleChangedEb@Qt_5 5.7.1
 _ZN8QtCharts7QLegend5colorEv@Qt_5 5.7.1
 _ZN8QtCharts7QLegend5paintEP8QPainterPK24QStyleOptionGraphicsItemP7QWidget@Qt_5 5.7.1
 _ZN8QtCharts7QLegend6setPenERK4QPen@Qt_5 5.7.1
 _ZN8QtCharts7QLegend7setFontERK5QFont@Qt_5 5.7.1
 _ZN8QtCharts7QLegend8setBrushERK6QBrush@Qt_5 5.7.1
 _ZN8QtCharts7QLegend8setColorE6QColor@Qt_5 5.7.1
 _ZN8QtCharts7QLegend9hideEventEP10QHideEvent@Qt_5 5.7.1
 _ZN8QtCharts7QLegend9showEventEP10QShowEvent@Qt_5 5.7.1
 _ZN8QtCharts7QLegendC1EPNS_6QChartE@Qt_5 5.7.1
 _ZN8QtCharts7QLegendC2EPNS_6QChartE@Qt_5 5.7.1
 _ZN8QtCharts7QLegendD0Ev@Qt_5 5.7.1
 _ZN8QtCharts7QLegendD1Ev@Qt_5 5.7.1
 _ZN8QtCharts7QLegendD2Ev@Qt_5 5.7.1
 _ZN8QtCharts7XYChart11qt_metacallEN11QMetaObject4CallEiPPv@Qt_5 5.10.1
 _ZN8QtCharts7XYChart11qt_metacastEPKc@Qt_5 5.10.1
 _ZN8QtCharts7XYChart11updateChartER7QVectorI7QPointFES4_i@Qt_5 5.10.1
 _ZN8QtCharts7XYChart12setAnimationEPNS_11XYAnimationE@Qt_5 5.10.1
 _ZN8QtCharts7XYChart13doubleClickedERK7QPointF@Qt_5 5.10.1
 _ZN8QtCharts7XYChart13updateGlChartEv@Qt_5 5.10.1
 _ZN8QtCharts7XYChart14refreshGlChartEv@Qt_5 5.10.1
 _ZN8QtCharts7XYChart16handlePointAddedEi@Qt_5 5.10.1
 _ZN8QtCharts7XYChart16staticMetaObjectE@Qt_5 5.10.1
 _ZN8QtCharts7XYChart17setGeometryPointsERK7QVectorI7QPointFE@Qt_5 5.10.1
 _ZN8QtCharts7XYChart18handlePointRemovedEi@Qt_5 5.10.1
 _ZN8QtCharts7XYChart19handleDomainUpdatedEv@Qt_5 5.10.1
 _ZN8QtCharts7XYChart19handlePointReplacedEi@Qt_5 5.10.1
 _ZN8QtCharts7XYChart19handlePointsRemovedEii@Qt_5 5.10.1
 _ZN8QtCharts7XYChart19offGridStatusVectorEv@Qt_5 5.10.1
 _ZN8QtCharts7XYChart20handlePointsReplacedEv@Qt_5 5.10.1
 _ZN8QtCharts7XYChart7clickedERK7QPointF@Qt_5 5.10.1
 _ZN8QtCharts7XYChart7hoveredERK7QPointFb@Qt_5 5.10.1
 _ZN8QtCharts7XYChart7pressedERK7QPointF@Qt_5 5.10.1
 _ZN8QtCharts7XYChart8releasedERK7QPointF@Qt_5 5.10.1
 _ZN8QtCharts7XYChart8setDirtyEb@Qt_5 5.10.1
 _ZN8QtCharts7XYChartC1EPNS_9QXYSeriesEP13QGraphicsItem@Qt_5 5.10.1
 _ZN8QtCharts7XYChartC2EPNS_9QXYSeriesEP13QGraphicsItem@Qt_5 5.10.1
 _ZN8QtCharts8Scroller10lowerSpeedER7QPointFd@Qt_5 5.10.1
 _ZN8QtCharts8Scroller10scrollTickEv@Qt_5 5.10.1
 _ZN8QtCharts8Scroller10stopTickerEv@Qt_5 5.10.1
 _ZN8QtCharts8Scroller11startTickerEi@Qt_5 5.10.1
 _ZN8QtCharts8Scroller20handleMouseMoveEventEP24QGraphicsSceneMouseEvent@Qt_5 5.10.1
 _ZN8QtCharts8Scroller21handleMousePressEventEP24QGraphicsSceneMouseEvent@Qt_5 5.10.1
 _ZN8QtCharts8Scroller23handleMouseReleaseEventEP24QGraphicsSceneMouseEvent@Qt_5 5.10.1
 _ZN8QtCharts8Scroller4moveERK7QPointF@Qt_5 5.10.1
 _ZN8QtCharts8Scroller8scrollToERK7QPointF@Qt_5 5.10.1
 _ZN8QtCharts8ScrollerC1Ev@Qt_5 5.10.1
 _ZN8QtCharts8ScrollerC2Ev@Qt_5 5.10.1
 _ZN8QtCharts8ScrollerD0Ev@Qt_5 5.10.1
 _ZN8QtCharts8ScrollerD1Ev@Qt_5 5.10.1
 _ZN8QtCharts8ScrollerD2Ev@Qt_5 5.10.1
 _ZN8QtCharts8XYDomain11qt_metacallEN11QMetaObject4CallEiPPv@Qt_5 5.10.1
 _ZN8QtCharts8XYDomain11qt_metacastEPKc@Qt_5 5.10.1
 _ZN8QtCharts8XYDomain16staticMetaObjectE@Qt_5 5.10.1
 _ZN8QtCharts8XYDomain4moveEdd@Qt_5 5.10.1
 _ZN8QtCharts8XYDomain6zoomInERK6QRectF@Qt_5 5.10.1
 _ZN8QtCharts8XYDomain7zoomOutERK6QRectF@Qt_5 5.10.1
 _ZN8QtCharts8XYDomain8setRangeEdddd@Qt_5 5.10.1
 _ZN8QtCharts8XYDomainC1EP7QObject@Qt_5 5.10.1
 _ZN8QtCharts8XYDomainC2EP7QObject@Qt_5 5.10.1
 _ZN8QtCharts8XYDomainD0Ev@Qt_5 5.10.1
 _ZN8QtCharts8XYDomainD1Ev@Qt_5 5.10.1
 _ZN8QtCharts8XYDomainD2Ev@Qt_5 5.10.1
 _ZN8QtCharts9ChartItem11qt_metacallEN11QMetaObject4CallEiPPv@Qt_5 5.10.1
 _ZN8QtCharts9ChartItem11qt_metacastEPKc@Qt_5 5.10.1
 _ZN8QtCharts9ChartItem16staticMetaObjectE@Qt_5 5.10.1
 _ZN8QtCharts9ChartItem19handleDomainUpdatedEv@Qt_5 5.10.1
 _ZN8QtCharts9ChartItem7cleanupEv@Qt_5 5.10.1
 _ZN8QtCharts9ChartItemC1EPNS_22QAbstractSeriesPrivateEP13QGraphicsItem@Qt_5 5.10.1
 _ZN8QtCharts9ChartItemC2EPNS_22QAbstractSeriesPrivateEP13QGraphicsItem@Qt_5 5.10.1
 _ZN8QtCharts9QPieSlice10labelColorEv@Qt_5 5.7.1
 _ZN8QtCharts9QPieSlice10penChangedEv@Qt_5 5.7.1
 _ZN8QtCharts9QPieSlice11borderColorEv@Qt_5 5.7.1
 _ZN8QtCharts9QPieSlice11borderWidthEv@Qt_5 5.7.1
 _ZN8QtCharts9QPieSlice11qt_metacallEN11QMetaObject4CallEiPPv@Qt_5 5.7.1
 _ZN8QtCharts9QPieSlice11qt_metacastEPKc@Qt_5 5.7.1
 _ZN8QtCharts9QPieSlice11setExplodedEb@Qt_5 5.7.1
 _ZN8QtCharts9QPieSlice12brushChangedEv@Qt_5 5.7.1
 _ZN8QtCharts9QPieSlice12colorChangedEv@Qt_5 5.7.1
 _ZN8QtCharts9QPieSlice12labelChangedEv@Qt_5 5.7.1
 _ZN8QtCharts9QPieSlice12setLabelFontERK5QFont@Qt_5 5.7.1
 _ZN8QtCharts9QPieSlice12valueChangedEv@Qt_5 5.7.1
 _ZN8QtCharts9QPieSlice13doubleClickedEv@Qt_5 5.7.1
 _ZN8QtCharts9QPieSlice13labelPositionEv@Qt_5 5.7.1
 _ZN8QtCharts9QPieSlice13setLabelBrushERK6QBrush@Qt_5 5.7.1
 _ZN8QtCharts9QPieSlice13setLabelColorE6QColor@Qt_5 5.7.1
 _ZN8QtCharts9QPieSlice14setBorderColorE6QColor@Qt_5 5.7.1
 _ZN8QtCharts9QPieSlice14setBorderWidthEi@Qt_5 5.7.1
 _ZN8QtCharts9QPieSlice15setLabelVisibleEb@Qt_5 5.7.1
 _ZN8QtCharts9QPieSlice16angleSpanChangedEv@Qt_5 5.7.1
 _ZN8QtCharts9QPieSlice16labelFontChangedEv@Qt_5 5.7.1
 _ZN8QtCharts9QPieSlice16setLabelPositionENS0_13LabelPositionE@Qt_5 5.7.1
 _ZN8QtCharts9QPieSlice16staticMetaObjectE@Qt_5 5.7.1
 _ZN8QtCharts9QPieSlice17labelBrushChangedEv@Qt_5 5.7.1
 _ZN8QtCharts9QPieSlice17labelColorChangedEv@Qt_5 5.7.1
 _ZN8QtCharts9QPieSlice17percentageChangedEv@Qt_5 5.7.1
 _ZN8QtCharts9QPieSlice17startAngleChangedEv@Qt_5 5.7.1
 _ZN8QtCharts9QPieSlice18borderColorChangedEv@Qt_5 5.7.1
 _ZN8QtCharts9QPieSlice18borderWidthChangedEv@Qt_5 5.7.1
 _ZN8QtCharts9QPieSlice19labelVisibleChangedEv@Qt_5 5.7.1
 _ZN8QtCharts9QPieSlice23setLabelArmLengthFactorEd@Qt_5 5.7.1
 _ZN8QtCharts9QPieSlice24setExplodeDistanceFactorEd@Qt_5 5.7.1
 _ZN8QtCharts9QPieSlice5colorEv@Qt_5 5.7.1
 _ZN8QtCharts9QPieSlice6setPenERK4QPen@Qt_5 5.7.1
 _ZN8QtCharts9QPieSlice7clickedEv@Qt_5 5.7.1
 _ZN8QtCharts9QPieSlice7hoveredEb@Qt_5 5.7.1
 _ZN8QtCharts9QPieSlice7pressedEv@Qt_5 5.7.1
 _ZN8QtCharts9QPieSlice8releasedEv@Qt_5 5.7.1
 _ZN8QtCharts9QPieSlice8setBrushERK6QBrush@Qt_5 5.7.1
 _ZN8QtCharts9QPieSlice8setColorE6QColor@Qt_5 5.7.1
 _ZN8QtCharts9QPieSlice8setLabelE7QString@Qt_5 5.7.1
 _ZN8QtCharts9QPieSlice8setValueEd@Qt_5 5.7.1
 _ZN8QtCharts9QPieSliceC1E7QStringdP7QObject@Qt_5 5.7.1
 _ZN8QtCharts9QPieSliceC1EP7QObject@Qt_5 5.7.1
 _ZN8QtCharts9QPieSliceC2E7QStringdP7QObject@Qt_5 5.7.1
 _ZN8QtCharts9QPieSliceC2EP7QObject@Qt_5 5.7.1
 _ZN8QtCharts9QPieSliceD0Ev@Qt_5 5.7.1
 _ZN8QtCharts9QPieSliceD1Ev@Qt_5 5.7.1
 _ZN8QtCharts9QPieSliceD2Ev@Qt_5 5.7.1
 _ZN8QtCharts9QXYSeries10penChangedERK4QPen@Qt_5 5.7.1
 _ZN8QtCharts9QXYSeries10pointAddedEi@Qt_5 5.7.1
 _ZN8QtCharts9QXYSeries11qt_metacallEN11QMetaObject4CallEiPPv@Qt_5 5.7.1
 _ZN8QtCharts9QXYSeries11qt_metacastEPKc@Qt_5 5.7.1
 _ZN8QtCharts9QXYSeries12colorChangedE6QColor@Qt_5 5.7.1
 _ZN8QtCharts9QXYSeries12pointRemovedEi@Qt_5 5.7.1
 _ZN8QtCharts9QXYSeries12removePointsEii@Qt_5 5.7.1
 _ZN8QtCharts9QXYSeries13doubleClickedERK7QPointF@Qt_5 5.7.1
 _ZN8QtCharts9QXYSeries13pointReplacedEi@Qt_5 5.7.1
 _ZN8QtCharts9QXYSeries13pointsRemovedEii@Qt_5 5.7.1
 _ZN8QtCharts9QXYSeries14pointsReplacedEv@Qt_5 5.7.1
 _ZN8QtCharts9QXYSeries16setPointsVisibleEb@Qt_5 5.7.1
 _ZN8QtCharts9QXYSeries16staticMetaObjectE@Qt_5 5.7.1
 _ZN8QtCharts9QXYSeries18setPointLabelsFontERK5QFont@Qt_5 5.7.1
 _ZN8QtCharts9QXYSeries19setPointLabelsColorERK6QColor@Qt_5 5.7.1
 _ZN8QtCharts9QXYSeries20setPointLabelsFormatERK7QString@Qt_5 5.7.1
 _ZN8QtCharts9QXYSeries21setPointLabelsVisibleEb@Qt_5 5.7.1
 _ZN8QtCharts9QXYSeries22pointLabelsFontChangedERK5QFont@Qt_5 5.7.1
 _ZN8QtCharts9QXYSeries22setPointLabelsClippingEb@Qt_5 5.7.1
 _ZN8QtCharts9QXYSeries23pointLabelsColorChangedERK6QColor@Qt_5 5.7.1
 _ZN8QtCharts9QXYSeries24pointLabelsFormatChangedERK7QString@Qt_5 5.7.1
 _ZN8QtCharts9QXYSeries26pointLabelsClippingChangedEb@Qt_5 5.7.1
 _ZN8QtCharts9QXYSeries28pointLabelsVisibilityChangedEb@Qt_5 5.7.1
 _ZN8QtCharts9QXYSeries5clearEv@Qt_5 5.7.1
 _ZN8QtCharts9QXYSeries6appendERK5QListI7QPointFE@Qt_5 5.7.1
 _ZN8QtCharts9QXYSeries6appendERK7QPointF@Qt_5 5.7.1
 _ZN8QtCharts9QXYSeries6appendEdd@Qt_5 5.7.1
 _ZN8QtCharts9QXYSeries6insertEiRK7QPointF@Qt_5 5.7.1
 _ZN8QtCharts9QXYSeries6removeERK7QPointF@Qt_5 5.7.1
 _ZN8QtCharts9QXYSeries6removeEdd@Qt_5 5.7.1
 _ZN8QtCharts9QXYSeries6removeEi@Qt_5 5.7.1
 _ZN8QtCharts9QXYSeries6setPenERK4QPen@Qt_5 5.7.1
 _ZN8QtCharts9QXYSeries7clickedERK7QPointF@Qt_5 5.7.1
 _ZN8QtCharts9QXYSeries7hoveredERK7QPointFb@Qt_5 5.7.1
 _ZN8QtCharts9QXYSeries7pressedERK7QPointF@Qt_5 5.7.1
 _ZN8QtCharts9QXYSeries7replaceE5QListI7QPointFE@Qt_5 5.7.1
 _ZN8QtCharts9QXYSeries7replaceE7QVectorI7QPointFE@Qt_5 5.7.1
 _ZN8QtCharts9QXYSeries7replaceERK7QPointFS3_@Qt_5 5.7.1
 _ZN8QtCharts9QXYSeries7replaceEdddd@Qt_5 5.7.1
 _ZN8QtCharts9QXYSeries7replaceEiRK7QPointF@Qt_5 5.7.1
 _ZN8QtCharts9QXYSeries7replaceEidd@Qt_5 5.7.1
 _ZN8QtCharts9QXYSeries8releasedERK7QPointF@Qt_5 5.7.1
 _ZN8QtCharts9QXYSeries8setBrushERK6QBrush@Qt_5 5.7.1
 _ZN8QtCharts9QXYSeries8setColorERK6QColor@Qt_5 5.7.1
 _ZN8QtCharts9QXYSeriesC1ERNS_16QXYSeriesPrivateEP7QObject@Qt_5 5.7.1
 _ZN8QtCharts9QXYSeriesC2ERNS_16QXYSeriesPrivateEP7QObject@Qt_5 5.7.1
 _ZN8QtCharts9QXYSeriesD0Ev@Qt_5 5.7.1
 _ZN8QtCharts9QXYSeriesD1Ev@Qt_5 5.7.1
 _ZN8QtCharts9QXYSeriesD2Ev@Qt_5 5.7.1
 _ZN8QtCharts9QXYSerieslsERK5QListI7QPointFE@Qt_5 5.7.1
 _ZN8QtCharts9QXYSerieslsERK7QPointF@Qt_5 5.7.1
 _ZNK8QtCharts10ChartTitle4textEv@Qt_5 5.10.1
 _ZNK8QtCharts10ChartTitle8sizeHintEN2Qt8SizeHintERK6QSizeF@Qt_5 5.10.1
 _ZNK8QtCharts10QBarSeries10metaObjectEv@Qt_5 5.7.1
 _ZNK8QtCharts10QBarSeries4typeEv@Qt_5 5.7.1
 _ZNK8QtCharts10QChartView10metaObjectEv@Qt_5 5.7.1
 _ZNK8QtCharts10QChartView10rubberBandEv@Qt_5 5.7.1
 _ZNK8QtCharts10QChartView5chartEv@Qt_5 5.7.1
 _ZNK8QtCharts10QPieSeries10metaObjectEv@Qt_5 5.7.1
 _ZNK8QtCharts10QPieSeries11pieEndAngleEv@Qt_5 5.7.1
 _ZNK8QtCharts10QPieSeries13pieStartAngleEv@Qt_5 5.7.1
 _ZNK8QtCharts10QPieSeries16verticalPositionEv@Qt_5 5.7.1
 _ZNK8QtCharts10QPieSeries18horizontalPositionEv@Qt_5 5.7.1
 _ZNK8QtCharts10QPieSeries3sumEv@Qt_5 5.7.1
 _ZNK8QtCharts10QPieSeries4typeEv@Qt_5 5.7.1
 _ZNK8QtCharts10QPieSeries5countEv@Qt_5 5.7.1
 _ZNK8QtCharts10QPieSeries6slicesEv@Qt_5 5.7.1
 _ZNK8QtCharts10QPieSeries7isEmptyEv@Qt_5 5.7.1
 _ZNK8QtCharts10QPieSeries7pieSizeEv@Qt_5 5.7.1
 _ZNK8QtCharts10QPieSeries8holeSizeEv@Qt_5 5.7.1
 _ZNK8QtCharts10QValueAxis10metaObjectEv@Qt_5 5.7.1
 _ZNK8QtCharts10QValueAxis11labelFormatEv@Qt_5 5.7.1
 _ZNK8QtCharts10QValueAxis14minorTickCountEv@Qt_5 5.7.1
 _ZNK8QtCharts10QValueAxis3maxEv@Qt_5 5.7.1
 _ZNK8QtCharts10QValueAxis3minEv@Qt_5 5.7.1
 _ZNK8QtCharts10QValueAxis4typeEv@Qt_5 5.7.1
 _ZNK8QtCharts10QValueAxis9tickCountEv@Qt_5 5.7.1
 _ZNK8QtCharts11BoxWhiskers10metaObjectEv@Qt_5 5.10.1
 _ZNK8QtCharts11BoxWhiskers12boundingRectEv@Qt_5 5.10.1
 _ZNK8QtCharts11BoxWhiskers8sizeHintEN2Qt8SizeHintERK6QSizeF@Qt_5 5.10.1
 _ZNK8QtCharts11Candlestick10metaObjectEv@Qt_5 5.10.1
 _ZNK8QtCharts11Candlestick12boundingRectEv@Qt_5 5.10.1
 _ZNK8QtCharts11LogXYDomain10metaObjectEv@Qt_5 5.10.1
 _ZNK8QtCharts11LogXYDomain20calculateDomainPointERK7QPointF@Qt_5 5.10.1
 _ZNK8QtCharts11LogXYDomain22calculateGeometryPointERK7QPointFRb@Qt_5 5.10.1
 _ZNK8QtCharts11LogXYDomain23calculateGeometryPointsERK7QVectorI7QPointFE@Qt_5 5.10.1
 _ZNK8QtCharts11PolarDomain10metaObjectEv@Qt_5 5.10.1
 _ZNK8QtCharts11PolarDomain22calculateGeometryPointERK7QPointFRb@Qt_5 5.10.1
 _ZNK8QtCharts11PolarDomain22polarCoordinateToPointEdd@Qt_5 5.10.1
 _ZNK8QtCharts11PolarDomain23calculateGeometryPointsERK7QVectorI7QPointFE@Qt_5 5.10.1
 _ZNK8QtCharts11QAreaSeries10metaObjectEv@Qt_5 5.7.1
 _ZNK8QtCharts11QAreaSeries11borderColorEv@Qt_5 5.7.1
 _ZNK8QtCharts11QAreaSeries11lowerSeriesEv@Qt_5 5.7.1
 _ZNK8QtCharts11QAreaSeries11upperSeriesEv@Qt_5 5.7.1
 _ZNK8QtCharts11QAreaSeries13pointsVisibleEv@Qt_5 5.7.1
 _ZNK8QtCharts11QAreaSeries15pointLabelsFontEv@Qt_5 5.7.1
 _ZNK8QtCharts11QAreaSeries16pointLabelsColorEv@Qt_5 5.7.1
 _ZNK8QtCharts11QAreaSeries17pointLabelsFormatEv@Qt_5 5.7.1
 _ZNK8QtCharts11QAreaSeries18pointLabelsVisibleEv@Qt_5 5.7.1
 _ZNK8QtCharts11QAreaSeries19pointLabelsClippingEv@Qt_5 5.7.1
 _ZNK8QtCharts11QAreaSeries3penEv@Qt_5 5.7.1
 _ZNK8QtCharts11QAreaSeries4typeEv@Qt_5 5.7.1
 _ZNK8QtCharts11QAreaSeries5brushEv@Qt_5 5.7.1
 _ZNK8QtCharts11QAreaSeries5colorEv@Qt_5 5.7.1
 _ZNK8QtCharts11QLineSeries10metaObjectEv@Qt_5 5.7.1
 _ZNK8QtCharts11QLineSeries4typeEv@Qt_5 5.7.1
 _ZNK8QtCharts11QPolarChart10metaObjectEv@Qt_5 5.7.1
 _ZNK8QtCharts11QPolarChart4axesE6QFlagsINS0_16PolarOrientationEEPNS_15QAbstractSeriesE@Qt_5 5.7.1
 _ZNK8QtCharts11XLogYDomain10metaObjectEv@Qt_5 5.10.1
 _ZNK8QtCharts11XLogYDomain20calculateDomainPointERK7QPointF@Qt_5 5.10.1
 _ZNK8QtCharts11XLogYDomain22calculateGeometryPointERK7QPointFRb@Qt_5 5.10.1
 _ZNK8QtCharts11XLogYDomain23calculateGeometryPointsERK7QVectorI7QPointFE@Qt_5 5.10.1
 _ZNK8QtCharts11XYAnimation12interpolatedERK8QVariantS3_d@Qt_5 5.10.1
 _ZNK8QtCharts12BarAnimation10metaObjectEv@Qt_5 5.10.1
 _ZNK8QtCharts12BarAnimation12interpolatedERK8QVariantS3_d@Qt_5 5.10.1
 _ZNK8QtCharts12BarChartItem10metaObjectEv@Qt_5 5.10.1
 _ZNK8QtCharts12ChartDataSet10metaObjectEv@Qt_5 5.10.1
 _ZNK8QtCharts12ChartDataSet15domainForSeriesEPNS_15QAbstractSeriesE@Qt_5 5.10.1
 _ZNK8QtCharts12ChartDataSet4axesEv@Qt_5 5.10.1
 _ZNK8QtCharts12ChartDataSet6seriesEv@Qt_5 5.10.1
 _ZNK8QtCharts12ChartElement12themeManagerEv@Qt_5 5.10.1
 _ZNK8QtCharts12ChartElement7dataSetEv@Qt_5 5.10.1
 _ZNK8QtCharts12ChartElement9presenterEv@Qt_5 5.10.1
 _ZNK8QtCharts12LegendLayout6offsetEv@Qt_5 5.10.1
 _ZNK8QtCharts12LegendLayout8sizeHintEN2Qt8SizeHintERK6QSizeF@Qt_5 5.10.1
 _ZNK8QtCharts12PieAnimation10metaObjectEv@Qt_5 5.10.1
 _ZNK8QtCharts12PieChartItem10metaObjectEv@Qt_5 5.10.1
 _ZNK8QtCharts12PieChartItem9animationEv@Qt_5 5.10.1
 _ZNK8QtCharts12PieSliceItem10metaObjectEv@Qt_5 5.10.1
 _ZNK8QtCharts12PieSliceItem12boundingRectEv@Qt_5 5.10.1
 _ZNK8QtCharts12PieSliceItem5shapeEv@Qt_5 5.10.1
 _ZNK8QtCharts12ScrollTicker10metaObjectEv@Qt_5 5.10.1
 _ZNK8QtCharts12VerticalAxis8sizeHintEN2Qt8SizeHintERK6QSizeF@Qt_5 5.10.1
 _ZNK8QtCharts13AreaChartItem10metaObjectEv@Qt_5 5.10.1
 _ZNK8QtCharts13AreaChartItem12boundingRectEv@Qt_5 5.10.1
 _ZNK8QtCharts13AreaChartItem5shapeEv@Qt_5 5.10.1
 _ZNK8QtCharts13AxisAnimation12interpolatedERK8QVariantS3_d@Qt_5 5.10.1
 _ZNK8QtCharts13LineChartItem10metaObjectEv@Qt_5 5.10.1
 _ZNK8QtCharts13LineChartItem12boundingRectEv@Qt_5 5.10.1
 _ZNK8QtCharts13LineChartItem5shapeEv@Qt_5 5.10.1
 _ZNK8QtCharts13QAbstractAxis10labelsFontEv@Qt_5 5.7.1
 _ZNK8QtCharts13QAbstractAxis10metaObjectEv@Qt_5 5.7.1
 _ZNK8QtCharts13QAbstractAxis10titleBrushEv@Qt_5 5.7.1
 _ZNK8QtCharts13QAbstractAxis11gridLinePenEv@Qt_5 5.7.1
 _ZNK8QtCharts13QAbstractAxis11labelsAngleEv@Qt_5 5.7.1
 _ZNK8QtCharts13QAbstractAxis11labelsBrushEv@Qt_5 5.7.1
 _ZNK8QtCharts13QAbstractAxis11labelsColorEv@Qt_5 5.7.1
 _ZNK8QtCharts13QAbstractAxis11orientationEv@Qt_5 5.7.1
 _ZNK8QtCharts13QAbstractAxis11shadesBrushEv@Qt_5 5.7.1
 _ZNK8QtCharts13QAbstractAxis11shadesColorEv@Qt_5 5.7.1
 _ZNK8QtCharts13QAbstractAxis12linePenColorEv@Qt_5 5.7.1
 _ZNK8QtCharts13QAbstractAxis13isLineVisibleEv@Qt_5 5.7.1
 _ZNK8QtCharts13QAbstractAxis13labelsVisibleEv@Qt_5 5.7.1
 _ZNK8QtCharts13QAbstractAxis13shadesVisibleEv@Qt_5 5.7.1
 _ZNK8QtCharts13QAbstractAxis14isTitleVisibleEv@Qt_5 5.7.1
 _ZNK8QtCharts13QAbstractAxis16minorGridLinePenEv@Qt_5 5.7.1
 _ZNK8QtCharts13QAbstractAxis17isGridLineVisibleEv@Qt_5 5.7.1
 _ZNK8QtCharts13QAbstractAxis17shadesBorderColorEv@Qt_5 5.7.1
 _ZNK8QtCharts13QAbstractAxis22isMinorGridLineVisibleEv@Qt_5 5.7.1
 _ZNK8QtCharts13QAbstractAxis7linePenEv@Qt_5 5.7.1
 _ZNK8QtCharts13QAbstractAxis9alignmentEv@Qt_5 5.7.1
 _ZNK8QtCharts13QAbstractAxis9isReverseEv@Qt_5 5.7.1
 _ZNK8QtCharts13QAbstractAxis9isVisibleEv@Qt_5 5.7.1
 _ZNK8QtCharts13QAbstractAxis9shadesPenEv@Qt_5 5.7.1
 _ZNK8QtCharts13QAbstractAxis9titleFontEv@Qt_5 5.7.1
 _ZNK8QtCharts13QAbstractAxis9titleTextEv@Qt_5 5.7.1
 _ZNK8QtCharts13QCategoryAxis10metaObjectEv@Qt_5 5.7.1
 _ZNK8QtCharts13QCategoryAxis10startValueERK7QString@Qt_5 5.7.1
 _ZNK8QtCharts13QCategoryAxis14labelsPositionEv@Qt_5 5.7.1
 _ZNK8QtCharts13QCategoryAxis4typeEv@Qt_5 5.7.1
 _ZNK8QtCharts13QCategoryAxis5countEv@Qt_5 5.7.1
 _ZNK8QtCharts13QCategoryAxis8endValueERK7QString@Qt_5 5.7.1
 _ZNK8QtCharts13QDateTimeAxis10metaObjectEv@Qt_5 5.7.1
 _ZNK8QtCharts13QDateTimeAxis3maxEv@Qt_5 5.7.1
 _ZNK8QtCharts13QDateTimeAxis3minEv@Qt_5 5.7.1
 _ZNK8QtCharts13QDateTimeAxis4typeEv@Qt_5 5.7.1
 _ZNK8QtCharts13QDateTimeAxis6formatEv@Qt_5 5.7.1
 _ZNK8QtCharts13QDateTimeAxis9tickCountEv@Qt_5 5.7.1
 _ZNK8QtCharts13QLegendMarker10labelBrushEv@Qt_5 5.7.1
 _ZNK8QtCharts13QLegendMarker10metaObjectEv@Qt_5 5.7.1
 _ZNK8QtCharts13QLegendMarker3penEv@Qt_5 5.7.1
 _ZNK8QtCharts13QLegendMarker4fontEv@Qt_5 5.7.1
 _ZNK8QtCharts13QLegendMarker5brushEv@Qt_5 5.7.1
 _ZNK8QtCharts13QLegendMarker5labelEv@Qt_5 5.7.1
 _ZNK8QtCharts13QLegendMarker5shapeEv@Qt_5 5.9.0~rc
 _ZNK8QtCharts13QLegendMarker9isVisibleEv@Qt_5 5.7.1
 _ZNK8QtCharts13QLogValueAxis10metaObjectEv@Qt_5 5.7.1
 _ZNK8QtCharts13QLogValueAxis11labelFormatEv@Qt_5 5.7.1
 _ZNK8QtCharts13QLogValueAxis14minorTickCountEv@Qt_5 5.9.0~rc
 _ZNK8QtCharts13QLogValueAxis3maxEv@Qt_5 5.7.1
 _ZNK8QtCharts13QLogValueAxis3minEv@Qt_5 5.7.1
 _ZNK8QtCharts13QLogValueAxis4baseEv@Qt_5 5.7.1
 _ZNK8QtCharts13QLogValueAxis4typeEv@Qt_5 5.7.1
 _ZNK8QtCharts13QLogValueAxis9tickCountEv@Qt_5 5.9.0~rc
 _ZNK8QtCharts13QSplineSeries10metaObjectEv@Qt_5 5.7.1
 _ZNK8QtCharts13QSplineSeries4typeEv@Qt_5 5.7.1
 _ZNK8QtCharts13XYPolarDomain10metaObjectEv@Qt_5 5.10.1
 _ZNK8QtCharts13XYPolarDomain18toRadialCoordinateEdRb@Qt_5 5.10.1
 _ZNK8QtCharts13XYPolarDomain19toAngularCoordinateEdRb@Qt_5 5.10.1
 _ZNK8QtCharts13XYPolarDomain20calculateDomainPointERK7QPointF@Qt_5 5.10.1
 _ZNK8QtCharts14AbstractDomain10metaObjectEv@Qt_5 5.10.1
 _ZNK8QtCharts14AbstractDomain4sizeEv@Qt_5 5.10.1
 _ZNK8QtCharts14AbstractDomain5spanXEv@Qt_5 5.10.1
 _ZNK8QtCharts14AbstractDomain5spanYEv@Qt_5 5.10.1
 _ZNK8QtCharts14AbstractDomain7isEmptyEv@Qt_5 5.10.1
 _ZNK8QtCharts14ChartAnimation10metaObjectEv@Qt_5 5.10.1
 _ZNK8QtCharts14ChartPresenter10chartItemsEv@Qt_5 5.10.1
 _ZNK8QtCharts14ChartPresenter10metaObjectEv@Qt_5 5.10.1
 _ZNK8QtCharts14ChartPresenter10titleBrushEv@Qt_5 5.10.1
 _ZNK8QtCharts14ChartPresenter13backgroundPenEv@Qt_5 5.10.1
 _ZNK8QtCharts14ChartPresenter15backgroundBrushEv@Qt_5 5.10.1
 _ZNK8QtCharts14ChartPresenter16animationOptionsEv@Qt_5 5.10.1
 _ZNK8QtCharts14ChartPresenter19backgroundRoundnessEv@Qt_5 5.10.1
 _ZNK8QtCharts14ChartPresenter19isBackgroundVisibleEv@Qt_5 5.10.1
 _ZNK8QtCharts14ChartPresenter21plotAreaBackgroundPenEv@Qt_5 5.10.1
 _ZNK8QtCharts14ChartPresenter23plotAreaBackgroundBrushEv@Qt_5 5.10.1
 _ZNK8QtCharts14ChartPresenter27isPlotAreaBackgroundVisibleEv@Qt_5 5.10.1
 _ZNK8QtCharts14ChartPresenter29isBackgroundDropShadowEnabledEv@Qt_5 5.10.1
 _ZNK8QtCharts14ChartPresenter5titleEv@Qt_5 5.10.1
 _ZNK8QtCharts14ChartPresenter8geometryEv@Qt_5 5.10.1
 _ZNK8QtCharts14ChartPresenter9axisItemsEv@Qt_5 5.10.1
 _ZNK8QtCharts14ChartPresenter9titleFontEv@Qt_5 5.10.1
 _ZNK8QtCharts14HorizontalAxis8sizeHintEN2Qt8SizeHintERK6QSizeF@Qt_5 5.10.1
 _ZNK8QtCharts14LegendScroller10metaObjectEv@Qt_5 5.10.1
 _ZNK8QtCharts14LegendScroller6offsetEv@Qt_5 5.10.1
 _ZNK8QtCharts14LogXLogYDomain10metaObjectEv@Qt_5 5.10.1
 _ZNK8QtCharts14LogXLogYDomain20calculateDomainPointERK7QPointF@Qt_5 5.10.1
 _ZNK8QtCharts14LogXLogYDomain22calculateGeometryPointERK7QPointFRb@Qt_5 5.10.1
 _ZNK8QtCharts14LogXLogYDomain23calculateGeometryPointsERK7QVectorI7QPointFE@Qt_5 5.10.1
 _ZNK8QtCharts14PolarChartAxis10metaObjectEv@Qt_5 5.10.1
 _ZNK8QtCharts14PolarChartAxis12gridGeometryEv@Qt_5 5.10.1
 _ZNK8QtCharts14QBarSetPrivate10metaObjectEv@Qt_5 5.10.1
 _ZNK8QtCharts14QBoxPlotSeries10metaObjectEv@Qt_5 5.7.1
 _ZNK8QtCharts14QBoxPlotSeries3penEv@Qt_5 5.7.1
 _ZNK8QtCharts14QBoxPlotSeries4typeEv@Qt_5 5.7.1
 _ZNK8QtCharts14QBoxPlotSeries5brushEv@Qt_5 5.7.1
 _ZNK8QtCharts14QBoxPlotSeries5countEv@Qt_5 5.7.1
 _ZNK8QtCharts14QBoxPlotSeries7boxSetsEv@Qt_5 5.7.1
 _ZNK8QtCharts14QBoxSetPrivate10metaObjectEv@Qt_5 5.10.1
 _ZNK8QtCharts14QLegendPrivate10metaObjectEv@Qt_5 5.10.1
 _ZNK8QtCharts14QLegendPrivate14maxMarkerWidthEv@Qt_5 5.10.1
 _ZNK8QtCharts14QLegendPrivate6offsetEv@Qt_5 5.10.1
 _ZNK8QtCharts14QScatterSeries10markerSizeEv@Qt_5 5.7.1
 _ZNK8QtCharts14QScatterSeries10metaObjectEv@Qt_5 5.7.1
 _ZNK8QtCharts14QScatterSeries11borderColorEv@Qt_5 5.7.1
 _ZNK8QtCharts14QScatterSeries11markerShapeEv@Qt_5 5.7.1
 _ZNK8QtCharts14QScatterSeries4typeEv@Qt_5 5.7.1
 _ZNK8QtCharts14QScatterSeries5brushEv@Qt_5 5.7.1
 _ZNK8QtCharts14QScatterSeries5colorEv@Qt_5 5.7.1
 _ZNK8QtCharts14QXYModelMapper10metaObjectEv@Qt_5 5.7.1
 _ZNK8QtCharts14QXYModelMapper11orientationEv@Qt_5 5.7.1
 _ZNK8QtCharts14QXYModelMapper5countEv@Qt_5 5.7.1
 _ZNK8QtCharts14QXYModelMapper5firstEv@Qt_5 5.7.1
 _ZNK8QtCharts14QXYModelMapper5modelEv@Qt_5 5.7.1
 _ZNK8QtCharts14QXYModelMapper6seriesEv@Qt_5 5.7.1
 _ZNK8QtCharts14QXYModelMapper8xSectionEv@Qt_5 5.7.1
 _ZNK8QtCharts14QXYModelMapper8ySectionEv@Qt_5 5.7.1
 _ZNK8QtCharts15ChartBackground8diameterEv@Qt_5 5.10.1
 _ZNK8QtCharts15ChartValueAxisX10metaObjectEv@Qt_5 5.10.1
 _ZNK8QtCharts15ChartValueAxisX15calculateLayoutEv@Qt_5 5.10.1
 _ZNK8QtCharts15ChartValueAxisX8sizeHintEN2Qt8SizeHintERK6QSizeF@Qt_5 5.10.1
 _ZNK8QtCharts15ChartValueAxisY10metaObjectEv@Qt_5 5.10.1
 _ZNK8QtCharts15ChartValueAxisY15calculateLayoutEv@Qt_5 5.10.1
 _ZNK8QtCharts15ChartValueAxisY8sizeHintEN2Qt8SizeHintERK6QSizeF@Qt_5 5.10.1
 _ZNK8QtCharts15QAbstractSeries10metaObjectEv@Qt_5 5.7.1
 _ZNK8QtCharts15QAbstractSeries4nameEv@Qt_5 5.7.1
 _ZNK8QtCharts15QAbstractSeries5chartEv@Qt_5 5.7.1
 _ZNK8QtCharts15QAbstractSeries7opacityEv@Qt_5 5.7.1
 _ZNK8QtCharts15QAbstractSeries9isVisibleEv@Qt_5 5.7.1
 _ZNK8QtCharts15QAbstractSeries9useOpenGLEv@Qt_5 5.7.1
 _ZNK8QtCharts15QBarModelMapper10metaObjectEv@Qt_5 5.7.1
 _ZNK8QtCharts15QBarModelMapper11orientationEv@Qt_5 5.7.1
 _ZNK8QtCharts15QBarModelMapper17lastBarSetSectionEv@Qt_5 5.7.1
 _ZNK8QtCharts15QBarModelMapper18firstBarSetSectionEv@Qt_5 5.7.1
 _ZNK8QtCharts15QBarModelMapper5countEv@Qt_5 5.7.1
 _ZNK8QtCharts15QBarModelMapper5firstEv@Qt_5 5.7.1
 _ZNK8QtCharts15QBarModelMapper5modelEv@Qt_5 5.7.1
 _ZNK8QtCharts15QBarModelMapper6seriesEv@Qt_5 5.7.1
 _ZNK8QtCharts15QCandlestickSet10metaObjectEv@Qt_5 5.9.0~rc
 _ZNK8QtCharts15QCandlestickSet3lowEv@Qt_5 5.9.0~rc
 _ZNK8QtCharts15QCandlestickSet3penEv@Qt_5 5.9.0~rc
 _ZNK8QtCharts15QCandlestickSet4highEv@Qt_5 5.9.0~rc
 _ZNK8QtCharts15QCandlestickSet4openEv@Qt_5 5.9.0~rc
 _ZNK8QtCharts15QCandlestickSet5brushEv@Qt_5 5.9.0~rc
 _ZNK8QtCharts15QCandlestickSet5closeEv@Qt_5 5.9.0~rc
 _ZNK8QtCharts15QCandlestickSet9timestampEv@Qt_5 5.9.0~rc
 _ZNK8QtCharts15QHXYModelMapper10metaObjectEv@Qt_5 5.7.1
 _ZNK8QtCharts15QHXYModelMapper11columnCountEv@Qt_5 5.7.1
 _ZNK8QtCharts15QHXYModelMapper11firstColumnEv@Qt_5 5.7.1
 _ZNK8QtCharts15QHXYModelMapper4xRowEv@Qt_5 5.7.1
 _ZNK8QtCharts15QHXYModelMapper4yRowEv@Qt_5 5.7.1
 _ZNK8QtCharts15QHXYModelMapper5modelEv@Qt_5 5.7.1
 _ZNK8QtCharts15QHXYModelMapper6seriesEv@Qt_5 5.7.1
 _ZNK8QtCharts15QPieModelMapper10metaObjectEv@Qt_5 5.7.1
 _ZNK8QtCharts15QPieModelMapper11orientationEv@Qt_5 5.7.1
 _ZNK8QtCharts15QPieModelMapper13labelsSectionEv@Qt_5 5.7.1
 _ZNK8QtCharts15QPieModelMapper13valuesSectionEv@Qt_5 5.7.1
 _ZNK8QtCharts15QPieModelMapper5countEv@Qt_5 5.7.1
 _ZNK8QtCharts15QPieModelMapper5firstEv@Qt_5 5.7.1
 _ZNK8QtCharts15QPieModelMapper5modelEv@Qt_5 5.7.1
 _ZNK8QtCharts15QPieModelMapper6seriesEv@Qt_5 5.7.1
 _ZNK8QtCharts15QVXYModelMapper10metaObjectEv@Qt_5 5.7.1
 _ZNK8QtCharts15QVXYModelMapper5modelEv@Qt_5 5.7.1
 _ZNK8QtCharts15QVXYModelMapper6seriesEv@Qt_5 5.7.1
 _ZNK8QtCharts15QVXYModelMapper7xColumnEv@Qt_5 5.7.1
 _ZNK8QtCharts15QVXYModelMapper7yColumnEv@Qt_5 5.7.1
 _ZNK8QtCharts15QVXYModelMapper8firstRowEv@Qt_5 5.7.1
 _ZNK8QtCharts15QVXYModelMapper8rowCountEv@Qt_5 5.7.1
 _ZNK8QtCharts15QXYLegendMarker10metaObjectEv@Qt_5 5.7.1
 _ZNK8QtCharts15SplineAnimation12interpolatedERK8QVariantS3_d@Qt_5 5.10.1
 _ZNK8QtCharts15SplineChartItem10metaObjectEv@Qt_5 5.10.1
 _ZNK8QtCharts15SplineChartItem12boundingRectEv@Qt_5 5.10.1
 _ZNK8QtCharts15SplineChartItem21controlGeometryPointsEv@Qt_5 5.10.1
 _ZNK8QtCharts15SplineChartItem5shapeEv@Qt_5 5.10.1
 _ZNK8QtCharts15SplineChartItem9animationEv@Qt_5 5.10.1
 _ZNK8QtCharts16BoxPlotAnimation10metaObjectEv@Qt_5 5.10.1
 _ZNK8QtCharts16BoxPlotChartItem10metaObjectEv@Qt_5 5.10.1
 _ZNK8QtCharts16BoxPlotChartItem12boundingRectEv@Qt_5 5.10.1
 _ZNK8QtCharts16ChartAxisElement10metaObjectEv@Qt_5 5.10.1
 _ZNK8QtCharts16ChartAxisElement11formatLabelERK7QStringRK10QByteArraydiS3_S3_@Qt_5 5.10.1
 _ZNK8QtCharts16ChartAxisElement17createValueLabelsEddiRK7QString@Qt_5 5.10.1
 _ZNK8QtCharts16ChartAxisElement20createDateTimeLabelsEddiRK7QString@Qt_5 5.10.1
 _ZNK8QtCharts16ChartAxisElement20createLogValueLabelsEdddiRK7QString@Qt_5 5.10.1
 _ZNK8QtCharts16ChartAxisElement3maxEv@Qt_5 5.10.1
 _ZNK8QtCharts16ChartAxisElement3minEv@Qt_5 5.10.1
 _ZNK8QtCharts16LegendMarkerItem10labelBrushEv@Qt_5 5.10.1
 _ZNK8QtCharts16LegendMarkerItem10markerRectEv@Qt_5 5.10.1
 _ZNK8QtCharts16LegendMarkerItem10metaObjectEv@Qt_5 5.10.1
 _ZNK8QtCharts16LegendMarkerItem11markerShapeEv@Qt_5 5.10.1
 _ZNK8QtCharts16LegendMarkerItem11useMaxWidthEv@Qt_5 5.10.1
 _ZNK8QtCharts16LegendMarkerItem12boundingRectEv@Qt_5 5.10.1
 _ZNK8QtCharts16LegendMarkerItem14displayedLabelEv@Qt_5 5.10.1
 _ZNK8QtCharts16LegendMarkerItem20effectiveMarkerShapeEv@Qt_5 5.10.1
 _ZNK8QtCharts16LegendMarkerItem20effectiveMarkerWidthEv@Qt_5 5.10.1
 _ZNK8QtCharts16LegendMarkerItem3penEv@Qt_5 5.10.1
 _ZNK8QtCharts16LegendMarkerItem4fontEv@Qt_5 5.10.1
 _ZNK8QtCharts16LegendMarkerItem5brushEv@Qt_5 5.10.1
 _ZNK8QtCharts16LegendMarkerItem5labelEv@Qt_5 5.10.1
 _ZNK8QtCharts16LegendMarkerItem8sizeHintEN2Qt8SizeHintERK6QSizeF@Qt_5 5.10.1
 _ZNK8QtCharts16LogXYPolarDomain10metaObjectEv@Qt_5 5.10.1
 _ZNK8QtCharts16LogXYPolarDomain18toRadialCoordinateEdRb@Qt_5 5.10.1
 _ZNK8QtCharts16LogXYPolarDomain19toAngularCoordinateEdRb@Qt_5 5.10.1
 _ZNK8QtCharts16LogXYPolarDomain20calculateDomainPointERK7QPointF@Qt_5 5.10.1
 _ZNK8QtCharts16PolarChartLayout20calculateAxisMinimumERK6QRectFRK5QListIPNS_16ChartAxisElementEE@Qt_5 5.10.1
 _ZNK8QtCharts16PolarChartLayout21calculateAxisGeometryERK6QRectFRK5QListIPNS_16ChartAxisElementEE@Qt_5 5.10.1
 _ZNK8QtCharts16QBarCategoryAxis10metaObjectEv@Qt_5 5.7.1
 _ZNK8QtCharts16QBarCategoryAxis2atEi@Qt_5 5.7.1
 _ZNK8QtCharts16QBarCategoryAxis3maxEv@Qt_5 5.7.1
 _ZNK8QtCharts16QBarCategoryAxis3minEv@Qt_5 5.7.1
 _ZNK8QtCharts16QBarCategoryAxis4typeEv@Qt_5 5.7.1
 _ZNK8QtCharts16QBarCategoryAxis5countEv@Qt_5 5.7.1
 _ZNK8QtCharts16QBarLegendMarker10metaObjectEv@Qt_5 5.7.1
 _ZNK8QtCharts16QHBarModelMapper10metaObjectEv@Qt_5 5.7.1
 _ZNK8QtCharts16QHBarModelMapper11columnCountEv@Qt_5 5.7.1
 _ZNK8QtCharts16QHBarModelMapper11firstColumnEv@Qt_5 5.7.1
 _ZNK8QtCharts16QHBarModelMapper13lastBarSetRowEv@Qt_5 5.7.1
 _ZNK8QtCharts16QHBarModelMapper14firstBarSetRowEv@Qt_5 5.7.1
 _ZNK8QtCharts16QHBarModelMapper5modelEv@Qt_5 5.7.1
 _ZNK8QtCharts16QHBarModelMapper6seriesEv@Qt_5 5.7.1
 _ZNK8QtCharts16QHPieModelMapper10metaObjectEv@Qt_5 5.7.1
 _ZNK8QtCharts16QHPieModelMapper11columnCountEv@Qt_5 5.7.1
 _ZNK8QtCharts16QHPieModelMapper11firstColumnEv@Qt_5 5.7.1
 _ZNK8QtCharts16QHPieModelMapper5modelEv@Qt_5 5.7.1
 _ZNK8QtCharts16QHPieModelMapper6seriesEv@Qt_5 5.7.1
 _ZNK8QtCharts16QHPieModelMapper9labelsRowEv@Qt_5 5.7.1
 _ZNK8QtCharts16QHPieModelMapper9valuesRowEv@Qt_5 5.7.1
 _ZNK8QtCharts16QPieLegendMarker10metaObjectEv@Qt_5 5.7.1
 _ZNK8QtCharts16QPieSlicePrivate10metaObjectEv@Qt_5 5.10.1
 _ZNK8QtCharts16QVBarModelMapper10metaObjectEv@Qt_5 5.7.1
 _ZNK8QtCharts16QVBarModelMapper16lastBarSetColumnEv@Qt_5 5.7.1
 _ZNK8QtCharts16QVBarModelMapper17firstBarSetColumnEv@Qt_5 5.7.1
 _ZNK8QtCharts16QVBarModelMapper5modelEv@Qt_5 5.7.1
 _ZNK8QtCharts16QVBarModelMapper6seriesEv@Qt_5 5.7.1
 _ZNK8QtCharts16QVBarModelMapper8firstRowEv@Qt_5 5.7.1
 _ZNK8QtCharts16QVBarModelMapper8rowCountEv@Qt_5 5.7.1
 _ZNK8QtCharts16QVPieModelMapper10metaObjectEv@Qt_5 5.7.1
 _ZNK8QtCharts16QVPieModelMapper12labelsColumnEv@Qt_5 5.7.1
 _ZNK8QtCharts16QVPieModelMapper12valuesColumnEv@Qt_5 5.7.1
 _ZNK8QtCharts16QVPieModelMapper5modelEv@Qt_5 5.7.1
 _ZNK8QtCharts16QVPieModelMapper6seriesEv@Qt_5 5.7.1
 _ZNK8QtCharts16QVPieModelMapper8firstRowEv@Qt_5 5.7.1
 _ZNK8QtCharts16QVPieModelMapper8rowCountEv@Qt_5 5.7.1
 _ZNK8QtCharts16QXYSeriesPrivate10metaObjectEv@Qt_5 5.10.1
 _ZNK8QtCharts16QXYSeriesPrivate15defaultAxisTypeEN2Qt11OrientationE@Qt_5 5.10.1
 _ZNK8QtCharts16QXYSeriesPrivate17createDefaultAxisEN2Qt11OrientationE@Qt_5 5.10.1
 _ZNK8QtCharts16ScatterChartItem10metaObjectEv@Qt_5 5.10.1
 _ZNK8QtCharts16ScatterChartItem12boundingRectEv@Qt_5 5.10.1
 _ZNK8QtCharts16XLogYPolarDomain10metaObjectEv@Qt_5 5.10.1
 _ZNK8QtCharts16XLogYPolarDomain18toRadialCoordinateEdRb@Qt_5 5.10.1
 _ZNK8QtCharts16XLogYPolarDomain19toAngularCoordinateEdRb@Qt_5 5.10.1
 _ZNK8QtCharts16XLogYPolarDomain20calculateDomainPointERK7QPointF@Qt_5 5.10.1
 _ZNK8QtCharts17ChartThemeManager10metaObjectEv@Qt_5 5.10.1
 _ZNK8QtCharts17ChartThemeManager11seriesCountENS_15QAbstractSeries10SeriesTypeE@Qt_5 5.10.1
 _ZNK8QtCharts17ChartThemeManager13decorateChartEPNS_6QChartEPNS_10ChartThemeE@Qt_5 5.10.1
 _ZNK8QtCharts17ChartThemeManager14createIndexKeyE5QListIiE@Qt_5 5.10.1
 _ZNK8QtCharts17ChartThemeManager14decorateLegendEPNS_7QLegendEPNS_10ChartThemeE@Qt_5 5.10.1
 _ZNK8QtCharts17PieSliceAnimation12interpolatedERK8QVariantS3_d@Qt_5 5.10.1
 _ZNK8QtCharts17QAreaLegendMarker10metaObjectEv@Qt_5 5.7.1
 _ZNK8QtCharts17QPercentBarSeries10metaObjectEv@Qt_5 5.7.1
 _ZNK8QtCharts17QPercentBarSeries4typeEv@Qt_5 5.7.1
 _ZNK8QtCharts17QPieSeriesPrivate10metaObjectEv@Qt_5 5.10.1
 _ZNK8QtCharts17QPieSeriesPrivate15defaultAxisTypeEN2Qt11OrientationE@Qt_5 5.10.1
 _ZNK8QtCharts17QPieSeriesPrivate17createDefaultAxisEN2Qt11OrientationE@Qt_5 5.10.1
 _ZNK8QtCharts17QStackedBarSeries10metaObjectEv@Qt_5 5.7.1
 _ZNK8QtCharts17QStackedBarSeries4typeEv@Qt_5 5.7.1
 _ZNK8QtCharts17QValueAxisPrivate10metaObjectEv@Qt_5 5.10.1
 _ZNK8QtCharts18CartesianChartAxis10metaObjectEv@Qt_5 5.10.1
 _ZNK8QtCharts18CartesianChartAxis8sizeHintEN2Qt8SizeHintERK6QSizeF@Qt_5 5.10.1
 _ZNK8QtCharts18ChartCategoryAxisX10metaObjectEv@Qt_5 5.10.1
 _ZNK8QtCharts18ChartCategoryAxisX15calculateLayoutEv@Qt_5 5.10.1
 _ZNK8QtCharts18ChartCategoryAxisX8sizeHintEN2Qt8SizeHintERK6QSizeF@Qt_5 5.10.1
 _ZNK8QtCharts18ChartCategoryAxisY10metaObjectEv@Qt_5 5.10.1
 _ZNK8QtCharts18ChartCategoryAxisY15calculateLayoutEv@Qt_5 5.10.1
 _ZNK8QtCharts18ChartCategoryAxisY8sizeHintEN2Qt8SizeHintERK6QSizeF@Qt_5 5.10.1
 _ZNK8QtCharts18ChartDateTimeAxisX10metaObjectEv@Qt_5 5.10.1
 _ZNK8QtCharts18ChartDateTimeAxisX15calculateLayoutEv@Qt_5 5.10.1
 _ZNK8QtCharts18ChartDateTimeAxisX8sizeHintEN2Qt8SizeHintERK6QSizeF@Qt_5 5.10.1
 _ZNK8QtCharts18ChartDateTimeAxisY10metaObjectEv@Qt_5 5.10.1
 _ZNK8QtCharts18ChartDateTimeAxisY15calculateLayoutEv@Qt_5 5.10.1
 _ZNK8QtCharts18ChartDateTimeAxisY8sizeHintEN2Qt8SizeHintERK6QSizeF@Qt_5 5.10.1
 _ZNK8QtCharts18ChartLogValueAxisX10metaObjectEv@Qt_5 5.10.1
 _ZNK8QtCharts18ChartLogValueAxisX15calculateLayoutEv@Qt_5 5.10.1
 _ZNK8QtCharts18ChartLogValueAxisX8sizeHintEN2Qt8SizeHintERK6QSizeF@Qt_5 5.10.1
 _ZNK8QtCharts18ChartLogValueAxisY10metaObjectEv@Qt_5 5.10.1
 _ZNK8QtCharts18ChartLogValueAxisY15calculateLayoutEv@Qt_5 5.10.1
 _ZNK8QtCharts18ChartLogValueAxisY8sizeHintEN2Qt8SizeHintERK6QSizeF@Qt_5 5.10.1
 _ZNK8QtCharts18QAbstractBarSeries10metaObjectEv@Qt_5 5.7.1
 _ZNK8QtCharts18QAbstractBarSeries11labelsAngleEv@Qt_5 5.7.1
 _ZNK8QtCharts18QAbstractBarSeries12labelsFormatEv@Qt_5 5.7.1
 _ZNK8QtCharts18QAbstractBarSeries14labelsPositionEv@Qt_5 5.7.1
 _ZNK8QtCharts18QAbstractBarSeries15isLabelsVisibleEv@Qt_5 5.7.1
 _ZNK8QtCharts18QAbstractBarSeries15labelsPrecisionEv@Qt_5 5.11.1
 _ZNK8QtCharts18QAbstractBarSeries5countEv@Qt_5 5.7.1
 _ZNK8QtCharts18QAbstractBarSeries7barSetsEv@Qt_5 5.7.1
 _ZNK8QtCharts18QAbstractBarSeries8barWidthEv@Qt_5 5.7.1
 _ZNK8QtCharts18QAreaSeriesPrivate10metaObjectEv@Qt_5 5.10.1
 _ZNK8QtCharts18QAreaSeriesPrivate15defaultAxisTypeEN2Qt11OrientationE@Qt_5 5.10.1
 _ZNK8QtCharts18QAreaSeriesPrivate17createDefaultAxisEN2Qt11OrientationE@Qt_5 5.10.1
 _ZNK8QtCharts18QCandlestickSeries10metaObjectEv@Qt_5 5.9.0~rc
 _ZNK8QtCharts18QCandlestickSeries11capsVisibleEv@Qt_5 5.9.0~rc
 _ZNK8QtCharts18QCandlestickSeries15decreasingColorEv@Qt_5 5.9.0~rc
 _ZNK8QtCharts18QCandlestickSeries15increasingColorEv@Qt_5 5.9.0~rc
 _ZNK8QtCharts18QCandlestickSeries18bodyOutlineVisibleEv@Qt_5 5.9.0~rc
 _ZNK8QtCharts18QCandlestickSeries18maximumColumnWidthEv@Qt_5 5.9.0~rc
 _ZNK8QtCharts18QCandlestickSeries18minimumColumnWidthEv@Qt_5 5.9.0~rc
 _ZNK8QtCharts18QCandlestickSeries3penEv@Qt_5 5.9.0~rc
 _ZNK8QtCharts18QCandlestickSeries4setsEv@Qt_5 5.9.0~rc
 _ZNK8QtCharts18QCandlestickSeries4typeEv@Qt_5 5.9.0~rc
 _ZNK8QtCharts18QCandlestickSeries5brushEv@Qt_5 5.9.0~rc
 _ZNK8QtCharts18QCandlestickSeries5countEv@Qt_5 5.9.0~rc
 _ZNK8QtCharts18QCandlestickSeries9bodyWidthEv@Qt_5 5.9.0~rc
 _ZNK8QtCharts18QCandlestickSeries9capsWidthEv@Qt_5 5.9.0~rc
 _ZNK8QtCharts19AbstractChartLayout21calculateTitleMinimumERK6QRectFPNS_10ChartTitleE@Qt_5 5.10.1
 _ZNK8QtCharts19AbstractChartLayout22calculateLegendMinimumERK6QRectFPNS_7QLegendE@Qt_5 5.10.1
 _ZNK8QtCharts19AbstractChartLayout22calculateTitleGeometryERK6QRectFPNS_10ChartTitleE@Qt_5 5.10.1
 _ZNK8QtCharts19AbstractChartLayout23calculateContentMinimumERK6QRectF@Qt_5 5.10.1
 _ZNK8QtCharts19AbstractChartLayout23calculateLegendGeometryERK6QRectFPNS_7QLegendE@Qt_5 5.10.1
 _ZNK8QtCharts19AbstractChartLayout24calculateContentGeometryERK6QRectF@Qt_5 5.10.1
 _ZNK8QtCharts19AbstractChartLayout26calculateBackgroundMinimumERK6QRectF@Qt_5 5.10.1
 _ZNK8QtCharts19AbstractChartLayout27calculateBackgroundGeometryERK6QRectFPNS_15ChartBackgroundE@Qt_5 5.10.1
 _ZNK8QtCharts19AbstractChartLayout7marginsEv@Qt_5 5.10.1
 _ZNK8QtCharts19AbstractChartLayout8sizeHintEN2Qt8SizeHintERK6QSizeF@Qt_5 5.10.1
 _ZNK8QtCharts19LogXLogYPolarDomain10metaObjectEv@Qt_5 5.10.1
 _ZNK8QtCharts19LogXLogYPolarDomain18toRadialCoordinateEdRb@Qt_5 5.10.1
 _ZNK8QtCharts19LogXLogYPolarDomain19toAngularCoordinateEdRb@Qt_5 5.10.1
 _ZNK8QtCharts19LogXLogYPolarDomain20calculateDomainPointERK7QPointF@Qt_5 5.10.1
 _ZNK8QtCharts19PercentBarChartItem10metaObjectEv@Qt_5 5.10.1
 _ZNK8QtCharts19QBoxPlotModelMapper10metaObjectEv@Qt_5 5.7.1
 _ZNK8QtCharts19QBoxPlotModelMapper11orientationEv@Qt_5 5.7.1
 _ZNK8QtCharts19QBoxPlotModelMapper17lastBoxSetSectionEv@Qt_5 5.7.1
 _ZNK8QtCharts19QBoxPlotModelMapper18firstBoxSetSectionEv@Qt_5 5.7.1
 _ZNK8QtCharts19QBoxPlotModelMapper5countEv@Qt_5 5.7.1
 _ZNK8QtCharts19QBoxPlotModelMapper5firstEv@Qt_5 5.7.1
 _ZNK8QtCharts19QBoxPlotModelMapper5modelEv@Qt_5 5.7.1
 _ZNK8QtCharts19QBoxPlotModelMapper6seriesEv@Qt_5 5.7.1
 _ZNK8QtCharts19StackedBarChartItem10metaObjectEv@Qt_5 5.10.1
 _ZNK8QtCharts20AbstractBarChartItem10metaObjectEv@Qt_5 5.10.1
 _ZNK8QtCharts20AbstractBarChartItem12boundingRectEv@Qt_5 5.10.1
 _ZNK8QtCharts20AbstractBarChartItem9animationEv@Qt_5 5.11.1
 _ZNK8QtCharts20BoxWhiskersAnimation10metaObjectEv@Qt_5 5.10.1
 _ZNK8QtCharts20BoxWhiskersAnimation12interpolatedERK8QVariantS3_d@Qt_5 5.10.1
 _ZNK8QtCharts20CandlestickAnimation10metaObjectEv@Qt_5 5.10.1
 _ZNK8QtCharts20CandlestickChartItem10metaObjectEv@Qt_5 5.10.1
 _ZNK8QtCharts20CandlestickChartItem12boundingRectEv@Qt_5 5.10.1
 _ZNK8QtCharts20CartesianChartLayout20calculateAxisMinimumERK6QRectFRK5QListIPNS_16ChartAxisElementEE@Qt_5 5.10.1
 _ZNK8QtCharts20CartesianChartLayout21calculateAxisGeometryERK6QRectFRK5QListIPNS_16ChartAxisElementEE@Qt_5 5.10.1
 _ZNK8QtCharts20PolarChartAxisRadial10metaObjectEv@Qt_5 5.10.1
 _ZNK8QtCharts20PolarChartAxisRadial11orientationEv@Qt_5 5.10.1
 _ZNK8QtCharts20PolarChartAxisRadial8sizeHintEN2Qt8SizeHintERK6QSizeF@Qt_5 5.10.1
 _ZNK8QtCharts20QAbstractAxisPrivate10metaObjectEv@Qt_5 5.10.1
 _ZNK8QtCharts20QBoxPlotLegendMarker10metaObjectEv@Qt_5 5.7.1
 _ZNK8QtCharts20QCategoryAxisPrivate10metaObjectEv@Qt_5 5.10.1
 _ZNK8QtCharts20QCategoryAxisPrivate10ticksCountEv@Qt_5 5.10.1
 _ZNK8QtCharts20QDateTimeAxisPrivate10metaObjectEv@Qt_5 5.10.1
 _ZNK8QtCharts20QHBoxPlotModelMapper10metaObjectEv@Qt_5 5.9.0~rc
 _ZNK8QtCharts20QHBoxPlotModelMapper11columnCountEv@Qt_5 5.9.0~rc
 _ZNK8QtCharts20QHBoxPlotModelMapper11firstColumnEv@Qt_5 5.9.0~rc
 _ZNK8QtCharts20QHBoxPlotModelMapper13lastBoxSetRowEv@Qt_5 5.9.0~rc
 _ZNK8QtCharts20QHBoxPlotModelMapper14firstBoxSetRowEv@Qt_5 5.9.0~rc
 _ZNK8QtCharts20QHBoxPlotModelMapper5modelEv@Qt_5 5.9.0~rc
 _ZNK8QtCharts20QHBoxPlotModelMapper6seriesEv@Qt_5 5.9.0~rc
 _ZNK8QtCharts20QHorizontalBarSeries10metaObjectEv@Qt_5 5.7.1
 _ZNK8QtCharts20QHorizontalBarSeries4typeEv@Qt_5 5.7.1
 _ZNK8QtCharts20QLegendMarkerPrivate10metaObjectEv@Qt_5 5.10.1
 _ZNK8QtCharts20QLogValueAxisPrivate10metaObjectEv@Qt_5 5.10.1
 _ZNK8QtCharts20QSplineSeriesPrivate10metaObjectEv@Qt_5 5.10.1
 _ZNK8QtCharts20QVBoxPlotModelMapper10metaObjectEv@Qt_5 5.7.1
 _ZNK8QtCharts20QVBoxPlotModelMapper16lastBoxSetColumnEv@Qt_5 5.7.1
 _ZNK8QtCharts20QVBoxPlotModelMapper17firstBoxSetColumnEv@Qt_5 5.7.1
 _ZNK8QtCharts20QVBoxPlotModelMapper5modelEv@Qt_5 5.7.1
 _ZNK8QtCharts20QVBoxPlotModelMapper6seriesEv@Qt_5 5.7.1
 _ZNK8QtCharts20QVBoxPlotModelMapper8firstRowEv@Qt_5 5.7.1
 _ZNK8QtCharts20QVBoxPlotModelMapper8rowCountEv@Qt_5 5.7.1
 _ZNK8QtCharts21ChartBarCategoryAxisX10metaObjectEv@Qt_5 5.10.1
 _ZNK8QtCharts21ChartBarCategoryAxisX15calculateLayoutEv@Qt_5 5.10.1
 _ZNK8QtCharts21ChartBarCategoryAxisX20createCategoryLabelsERK7QVectorIdE@Qt_5 5.10.1
 _ZNK8QtCharts21ChartBarCategoryAxisX8sizeHintEN2Qt8SizeHintERK6QSizeF@Qt_5 5.10.1
 _ZNK8QtCharts21ChartBarCategoryAxisY10metaObjectEv@Qt_5 5.10.1
 _ZNK8QtCharts21ChartBarCategoryAxisY15calculateLayoutEv@Qt_5 5.10.1
 _ZNK8QtCharts21ChartBarCategoryAxisY20createCategoryLabelsERK7QVectorIdE@Qt_5 5.10.1
 _ZNK8QtCharts21ChartBarCategoryAxisY8sizeHintEN2Qt8SizeHintERK6QSizeF@Qt_5 5.10.1
 _ZNK8QtCharts21GLXYSeriesDataManager10metaObjectEv@Qt_5 5.10.1
 _ZNK8QtCharts21PolarChartAxisAngular10metaObjectEv@Qt_5 5.10.1
 _ZNK8QtCharts21PolarChartAxisAngular11orientationEv@Qt_5 5.10.1
 _ZNK8QtCharts21PolarChartAxisAngular19moveLabelToPositionEd7QPointF6QRectF@Qt_5 5.10.1
 _ZNK8QtCharts21PolarChartAxisAngular8sizeHintEN2Qt8SizeHintERK6QSizeF@Qt_5 5.10.1
 _ZNK8QtCharts21QBoxPlotSeriesPrivate10metaObjectEv@Qt_5 5.10.1
 _ZNK8QtCharts21QBoxPlotSeriesPrivate15defaultAxisTypeEN2Qt11OrientationE@Qt_5 5.10.1
 _ZNK8QtCharts21QBoxPlotSeriesPrivate17createDefaultAxisEN2Qt11OrientationE@Qt_5 5.10.1
 _ZNK8QtCharts21QXYModelMapperPrivate10metaObjectEv@Qt_5 5.10.1
 _ZNK8QtCharts22HorizontalBarChartItem10metaObjectEv@Qt_5 5.10.1
 _ZNK8QtCharts22QAbstractSeriesPrivate10metaObjectEv@Qt_5 5.10.1
 _ZNK8QtCharts22QAbstractSeriesPrivate9presenterEv@Qt_5 5.10.1
 _ZNK8QtCharts22QBarModelMapperPrivate10metaObjectEv@Qt_5 5.10.1
 _ZNK8QtCharts22QCandlestickSetPrivate10metaObjectEv@Qt_5 5.10.1
 _ZNK8QtCharts22QPieModelMapperPrivate10metaObjectEv@Qt_5 5.10.1
 _ZNK8QtCharts22QPieModelMapperPrivate12isLabelIndexE11QModelIndex@Qt_5 5.10.1
 _ZNK8QtCharts22QPieModelMapperPrivate12isValueIndexE11QModelIndex@Qt_5 5.10.1
 _ZNK8QtCharts22QPieModelMapperPrivate8pieSliceE11QModelIndex@Qt_5 5.10.1
 _ZNK8QtCharts22QXYLegendMarkerPrivate10metaObjectEv@Qt_5 5.10.1
 _ZNK8QtCharts23QBarCategoryAxisPrivate10metaObjectEv@Qt_5 5.10.1
 _ZNK8QtCharts23QBarLegendMarkerPrivate10metaObjectEv@Qt_5 5.10.1
 _ZNK8QtCharts23QCandlestickModelMapper10metaObjectEv@Qt_5 5.9.0~rc
 _ZNK8QtCharts23QCandlestickModelMapper14lastSetSectionEv@Qt_5 5.9.0~rc
 _ZNK8QtCharts23QCandlestickModelMapper15firstSetSectionEv@Qt_5 5.9.0~rc
 _ZNK8QtCharts23QCandlestickModelMapper3lowEv@Qt_5 5.9.0~rc
 _ZNK8QtCharts23QCandlestickModelMapper4highEv@Qt_5 5.9.0~rc
 _ZNK8QtCharts23QCandlestickModelMapper4openEv@Qt_5 5.9.0~rc
 _ZNK8QtCharts23QCandlestickModelMapper5closeEv@Qt_5 5.9.0~rc
 _ZNK8QtCharts23QCandlestickModelMapper5modelEv@Qt_5 5.9.0~rc
 _ZNK8QtCharts23QCandlestickModelMapper6seriesEv@Qt_5 5.9.0~rc
 _ZNK8QtCharts23QCandlestickModelMapper9timestampEv@Qt_5 5.9.0~rc
 _ZNK8QtCharts23QPieLegendMarkerPrivate10metaObjectEv@Qt_5 5.10.1
 _ZNK8QtCharts24QAreaLegendMarkerPrivate10metaObjectEv@Qt_5 5.10.1
 _ZNK8QtCharts24QCandlestickLegendMarker10metaObjectEv@Qt_5 5.9.0~rc
 _ZNK8QtCharts24QHCandlestickModelMapper10highColumnEv@Qt_5 5.9.0~rc
 _ZNK8QtCharts24QHCandlestickModelMapper10lastSetRowEv@Qt_5 5.9.0~rc
 _ZNK8QtCharts24QHCandlestickModelMapper10metaObjectEv@Qt_5 5.9.0~rc
 _ZNK8QtCharts24QHCandlestickModelMapper10openColumnEv@Qt_5 5.9.0~rc
 _ZNK8QtCharts24QHCandlestickModelMapper11closeColumnEv@Qt_5 5.9.0~rc
 _ZNK8QtCharts24QHCandlestickModelMapper11firstSetRowEv@Qt_5 5.9.0~rc
 _ZNK8QtCharts24QHCandlestickModelMapper11orientationEv@Qt_5 5.9.0~rc
 _ZNK8QtCharts24QHCandlestickModelMapper15timestampColumnEv@Qt_5 5.9.0~rc
 _ZNK8QtCharts24QHCandlestickModelMapper9lowColumnEv@Qt_5 5.9.0~rc
 _ZNK8QtCharts24QVCandlestickModelMapper10metaObjectEv@Qt_5 5.9.0~rc
 _ZNK8QtCharts24QVCandlestickModelMapper11orientationEv@Qt_5 5.9.0~rc
 _ZNK8QtCharts24QVCandlestickModelMapper12timestampRowEv@Qt_5 5.9.0~rc
 _ZNK8QtCharts24QVCandlestickModelMapper13lastSetColumnEv@Qt_5 5.9.0~rc
 _ZNK8QtCharts24QVCandlestickModelMapper14firstSetColumnEv@Qt_5 5.9.0~rc
 _ZNK8QtCharts24QVCandlestickModelMapper6lowRowEv@Qt_5 5.9.0~rc
 _ZNK8QtCharts24QVCandlestickModelMapper7highRowEv@Qt_5 5.9.0~rc
 _ZNK8QtCharts24QVCandlestickModelMapper7openRowEv@Qt_5 5.9.0~rc
 _ZNK8QtCharts24QVCandlestickModelMapper8closeRowEv@Qt_5 5.9.0~rc
 _ZNK8QtCharts25PolarChartValueAxisRadial10metaObjectEv@Qt_5 5.10.1
 _ZNK8QtCharts25PolarChartValueAxisRadial15calculateLayoutEv@Qt_5 5.10.1
 _ZNK8QtCharts25QAbstractBarSeriesPrivate10metaObjectEv@Qt_5 5.10.1
 _ZNK8QtCharts25QAbstractBarSeriesPrivate11labelsAngleEv@Qt_5 5.10.1
 _ZNK8QtCharts25QAbstractBarSeriesPrivate13categoryCountEv@Qt_5 5.10.1
 _ZNK8QtCharts25QAbstractBarSeriesPrivate15defaultAxisTypeEN2Qt11OrientationE@Qt_5 5.10.1
 _ZNK8QtCharts25QAbstractBarSeriesPrivate17createDefaultAxisEN2Qt11OrientationE@Qt_5 5.10.1
 _ZNK8QtCharts25QAbstractBarSeriesPrivate8barWidthEv@Qt_5 5.10.1
 _ZNK8QtCharts25QCandlestickSeriesPrivate10metaObjectEv@Qt_5 5.10.1
 _ZNK8QtCharts25QCandlestickSeriesPrivate15defaultAxisTypeEN2Qt11OrientationE@Qt_5 5.10.1
 _ZNK8QtCharts25QCandlestickSeriesPrivate17createDefaultAxisEN2Qt11OrientationE@Qt_5 5.10.1
 _ZNK8QtCharts26PolarChartValueAxisAngular10metaObjectEv@Qt_5 5.10.1
 _ZNK8QtCharts26PolarChartValueAxisAngular15calculateLayoutEv@Qt_5 5.10.1
 _ZNK8QtCharts27QBoxPlotLegendMarkerPrivate10metaObjectEv@Qt_5 5.10.1
 _ZNK8QtCharts27QHorizontalPercentBarSeries10metaObjectEv@Qt_5 5.7.1
 _ZNK8QtCharts27QHorizontalPercentBarSeries4typeEv@Qt_5 5.7.1
 _ZNK8QtCharts27QHorizontalStackedBarSeries10metaObjectEv@Qt_5 5.7.1
 _ZNK8QtCharts27QHorizontalStackedBarSeries4typeEv@Qt_5 5.7.1
 _ZNK8QtCharts28PolarChartCategoryAxisRadial10metaObjectEv@Qt_5 5.10.1
 _ZNK8QtCharts28PolarChartCategoryAxisRadial15calculateLayoutEv@Qt_5 5.10.1
 _ZNK8QtCharts28PolarChartDateTimeAxisRadial10metaObjectEv@Qt_5 5.10.1
 _ZNK8QtCharts28PolarChartDateTimeAxisRadial15calculateLayoutEv@Qt_5 5.10.1
 _ZNK8QtCharts28PolarChartLogValueAxisRadial10metaObjectEv@Qt_5 5.10.1
 _ZNK8QtCharts28PolarChartLogValueAxisRadial15calculateLayoutEv@Qt_5 5.10.1
 _ZNK8QtCharts29CandlestickBodyWicksAnimation10metaObjectEv@Qt_5 5.10.1
 _ZNK8QtCharts29CandlestickBodyWicksAnimation12interpolatedERK8QVariantS3_d@Qt_5 5.10.1
 _ZNK8QtCharts29HorizontalPercentBarChartItem10metaObjectEv@Qt_5 5.10.1
 _ZNK8QtCharts29HorizontalStackedBarChartItem10metaObjectEv@Qt_5 5.10.1
 _ZNK8QtCharts29PolarChartCategoryAxisAngular10metaObjectEv@Qt_5 5.10.1
 _ZNK8QtCharts29PolarChartCategoryAxisAngular15calculateLayoutEv@Qt_5 5.10.1
 _ZNK8QtCharts29PolarChartDateTimeAxisAngular10metaObjectEv@Qt_5 5.10.1
 _ZNK8QtCharts29PolarChartDateTimeAxisAngular15calculateLayoutEv@Qt_5 5.10.1
 _ZNK8QtCharts29PolarChartLogValueAxisAngular10metaObjectEv@Qt_5 5.10.1
 _ZNK8QtCharts29PolarChartLogValueAxisAngular15calculateLayoutEv@Qt_5 5.10.1
 _ZNK8QtCharts30QCandlestickModelMapperPrivate10metaObjectEv@Qt_5 5.10.1
 _ZNK8QtCharts31QCandlestickLegendMarkerPrivate10metaObjectEv@Qt_5 5.10.1
 _ZNK8QtCharts3Bar10metaObjectEv@Qt_5 5.10.1
 _ZNK8QtCharts6QChart10metaObjectEv@Qt_5 5.7.1
 _ZNK8QtCharts6QChart10titleBrushEv@Qt_5 5.7.1
 _ZNK8QtCharts6QChart13backgroundPenEv@Qt_5 5.7.1
 _ZNK8QtCharts6QChart15backgroundBrushEv@Qt_5 5.7.1
 _ZNK8QtCharts6QChart15localizeNumbersEv@Qt_5 5.7.1
 _ZNK8QtCharts6QChart16animationOptionsEv@Qt_5 5.7.1
 _ZNK8QtCharts6QChart17animationDurationEv@Qt_5 5.7.1
 _ZNK8QtCharts6QChart19backgroundRoundnessEv@Qt_5 5.7.1
 _ZNK8QtCharts6QChart19isBackgroundVisibleEv@Qt_5 5.7.1
 _ZNK8QtCharts6QChart19isDropShadowEnabledEv@Qt_5 5.7.1
 _ZNK8QtCharts6QChart20animationEasingCurveEv@Qt_5 5.7.1
 _ZNK8QtCharts6QChart21plotAreaBackgroundPenEv@Qt_5 5.7.1
 _ZNK8QtCharts6QChart23plotAreaBackgroundBrushEv@Qt_5 5.7.1
 _ZNK8QtCharts6QChart27isPlotAreaBackgroundVisibleEv@Qt_5 5.7.1
 _ZNK8QtCharts6QChart4axesE6QFlagsIN2Qt11OrientationEEPNS_15QAbstractSeriesE@Qt_5 5.7.1
 _ZNK8QtCharts6QChart5axisXEPNS_15QAbstractSeriesE@Qt_5 5.7.1
 _ZNK8QtCharts6QChart5axisYEPNS_15QAbstractSeriesE@Qt_5 5.7.1
 _ZNK8QtCharts6QChart5themeEv@Qt_5 5.7.1
 _ZNK8QtCharts6QChart5titleEv@Qt_5 5.7.1
 _ZNK8QtCharts6QChart6legendEv@Qt_5 5.7.1
 _ZNK8QtCharts6QChart6localeEv@Qt_5 5.7.1
 _ZNK8QtCharts6QChart6seriesEv@Qt_5 5.7.1
 _ZNK8QtCharts6QChart7marginsEv@Qt_5 5.7.1
 _ZNK8QtCharts6QChart8plotAreaEv@Qt_5 5.7.1
 _ZNK8QtCharts6QChart9chartTypeEv@Qt_5 5.7.1
 _ZNK8QtCharts6QChart9titleFontEv@Qt_5 5.7.1
 _ZNK8QtCharts7QBarSet10labelBrushEv@Qt_5 5.7.1
 _ZNK8QtCharts7QBarSet10metaObjectEv@Qt_5 5.7.1
 _ZNK8QtCharts7QBarSet2atEi@Qt_5 5.7.1
 _ZNK8QtCharts7QBarSet3penEv@Qt_5 5.7.1
 _ZNK8QtCharts7QBarSet3sumEv@Qt_5 5.7.1
 _ZNK8QtCharts7QBarSet5brushEv@Qt_5 5.7.1
 _ZNK8QtCharts7QBarSet5countEv@Qt_5 5.7.1
 _ZNK8QtCharts7QBarSet5labelEv@Qt_5 5.7.1
 _ZNK8QtCharts7QBarSet9labelFontEv@Qt_5 5.7.1
 _ZNK8QtCharts7QBarSetixEi@Qt_5 5.7.1
 _ZNK8QtCharts7QBoxSet10metaObjectEv@Qt_5 5.7.1
 _ZNK8QtCharts7QBoxSet2atEi@Qt_5 5.7.1
 _ZNK8QtCharts7QBoxSet3penEv@Qt_5 5.7.1
 _ZNK8QtCharts7QBoxSet5brushEv@Qt_5 5.7.1
 _ZNK8QtCharts7QBoxSet5countEv@Qt_5 5.7.1
 _ZNK8QtCharts7QBoxSet5labelEv@Qt_5 5.7.1
 _ZNK8QtCharts7QBoxSetixEi@Qt_5 5.7.1
 _ZNK8QtCharts7QLegend10labelBrushEv@Qt_5 5.7.1
 _ZNK8QtCharts7QLegend10labelColorEv@Qt_5 5.7.1
 _ZNK8QtCharts7QLegend10metaObjectEv@Qt_5 5.7.1
 _ZNK8QtCharts7QLegend11markerShapeEv@Qt_5 5.9.0~rc
 _ZNK8QtCharts7QLegend12showToolTipsEv@Qt_5 5.7.1
 _ZNK8QtCharts7QLegend19isBackgroundVisibleEv@Qt_5 5.7.1
 _ZNK8QtCharts7QLegend3penEv@Qt_5 5.7.1
 _ZNK8QtCharts7QLegend4fontEv@Qt_5 5.7.1
 _ZNK8QtCharts7QLegend5brushEv@Qt_5 5.7.1
 _ZNK8QtCharts7QLegend7markersEPNS_15QAbstractSeriesE@Qt_5 5.7.1
 _ZNK8QtCharts7QLegend9alignmentEv@Qt_5 5.7.1
 _ZNK8QtCharts7XYChart10metaObjectEv@Qt_5 5.10.1
 _ZNK8QtCharts8XYDomain10metaObjectEv@Qt_5 5.10.1
 _ZNK8QtCharts8XYDomain20calculateDomainPointERK7QPointF@Qt_5 5.10.1
 _ZNK8QtCharts8XYDomain22calculateGeometryPointERK7QPointFRb@Qt_5 5.10.1
 _ZNK8QtCharts8XYDomain23calculateGeometryPointsERK7QVectorI7QPointFE@Qt_5 5.10.1
 _ZNK8QtCharts9ChartItem10metaObjectEv@Qt_5 5.10.1
 _ZNK8QtCharts9ChartItem6domainEv@Qt_5 5.10.1
 _ZNK8QtCharts9QPieSlice10isExplodedEv@Qt_5 5.7.1
 _ZNK8QtCharts9QPieSlice10labelBrushEv@Qt_5 5.7.1
 _ZNK8QtCharts9QPieSlice10metaObjectEv@Qt_5 5.7.1
 _ZNK8QtCharts9QPieSlice10percentageEv@Qt_5 5.7.1
 _ZNK8QtCharts9QPieSlice10startAngleEv@Qt_5 5.7.1
 _ZNK8QtCharts9QPieSlice14isLabelVisibleEv@Qt_5 5.7.1
 _ZNK8QtCharts9QPieSlice20labelArmLengthFactorEv@Qt_5 5.7.1
 _ZNK8QtCharts9QPieSlice21explodeDistanceFactorEv@Qt_5 5.7.1
 _ZNK8QtCharts9QPieSlice3penEv@Qt_5 5.7.1
 _ZNK8QtCharts9QPieSlice5brushEv@Qt_5 5.7.1
 _ZNK8QtCharts9QPieSlice5labelEv@Qt_5 5.7.1
 _ZNK8QtCharts9QPieSlice5valueEv@Qt_5 5.7.1
 _ZNK8QtCharts9QPieSlice6seriesEv@Qt_5 5.7.1
 _ZNK8QtCharts9QPieSlice9angleSpanEv@Qt_5 5.7.1
 _ZNK8QtCharts9QPieSlice9labelFontEv@Qt_5 5.7.1
 _ZNK8QtCharts9QXYSeries10metaObjectEv@Qt_5 5.7.1
 _ZNK8QtCharts9QXYSeries12pointsVectorEv@Qt_5 5.7.1
 _ZNK8QtCharts9QXYSeries13pointsVisibleEv@Qt_5 5.7.1
 _ZNK8QtCharts9QXYSeries15pointLabelsFontEv@Qt_5 5.7.1
 _ZNK8QtCharts9QXYSeries16pointLabelsColorEv@Qt_5 5.7.1
 _ZNK8QtCharts9QXYSeries17pointLabelsFormatEv@Qt_5 5.7.1
 _ZNK8QtCharts9QXYSeries18pointLabelsVisibleEv@Qt_5 5.7.1
 _ZNK8QtCharts9QXYSeries19pointLabelsClippingEv@Qt_5 5.7.1
 _ZNK8QtCharts9QXYSeries2atEi@Qt_5 5.7.1
 _ZNK8QtCharts9QXYSeries3penEv@Qt_5 5.7.1
 _ZNK8QtCharts9QXYSeries5brushEv@Qt_5 5.7.1
 _ZNK8QtCharts9QXYSeries5colorEv@Qt_5 5.7.1
 _ZNK8QtCharts9QXYSeries5countEv@Qt_5 5.7.1
 _ZNK8QtCharts9QXYSeries6pointsEv@Qt_5 5.7.1
 _ZTI16QOpenGLFunctions@Qt_5 5.7.1
 _ZTIN8QtCharts10ChartTitleE@Qt_5 5.10.1
 _ZTIN8QtCharts10QBarSeriesE@Qt_5 5.7.1
 _ZTIN8QtCharts10QChartViewE@Qt_5 5.7.1
 _ZTIN8QtCharts10QPieSeriesE@Qt_5 5.7.1
 _ZTIN8QtCharts10QValueAxisE@Qt_5 5.7.1
 _ZTIN8QtCharts11BoxWhiskersE@Qt_5 5.10.1
 _ZTIN8QtCharts11CandlestickE@Qt_5 5.10.1
 _ZTIN8QtCharts11LogXYDomainE@Qt_5 5.10.1
 _ZTIN8QtCharts11PolarDomainE@Qt_5 5.10.1
 _ZTIN8QtCharts11QAreaSeriesE@Qt_5 5.7.1
 _ZTIN8QtCharts11QLineSeriesE@Qt_5 5.7.1
 _ZTIN8QtCharts11QPolarChartE@Qt_5 5.7.1
 _ZTIN8QtCharts11XLogYDomainE@Qt_5 5.10.1
 _ZTIN8QtCharts11XYAnimationE@Qt_5 5.10.1
 _ZTIN8QtCharts12BarAnimationE@Qt_5 5.10.1
 _ZTIN8QtCharts12BarChartItemE@Qt_5 5.10.1
 _ZTIN8QtCharts12ChartDataSetE@Qt_5 5.10.1
 _ZTIN8QtCharts12ChartElementE@Qt_5 5.10.1
 _ZTIN8QtCharts12CircleMarkerE@Qt_5 5.10.1
 _ZTIN8QtCharts12LegendLayoutE@Qt_5 5.10.1
 _ZTIN8QtCharts12PieAnimationE@Qt_5 5.10.1
 _ZTIN8QtCharts12PieChartItemE@Qt_5 5.10.1
 _ZTIN8QtCharts12PieSliceItemE@Qt_5 5.10.1
 _ZTIN8QtCharts12ScrollTickerE@Qt_5 5.10.1
 _ZTIN8QtCharts12VerticalAxisE@Qt_5 5.10.1
 _ZTIN8QtCharts13AreaBoundItemE@Qt_5 5.10.1
 _ZTIN8QtCharts13AreaChartItemE@Qt_5 5.10.1
 _ZTIN8QtCharts13AxisAnimationE@Qt_5 5.10.1
 _ZTIN8QtCharts13LineArrowItemE@Qt_5 5.10.1
 _ZTIN8QtCharts13LineChartItemE@Qt_5 5.10.1
 _ZTIN8QtCharts13QAbstractAxisE@Qt_5 5.7.1
 _ZTIN8QtCharts13QCategoryAxisE@Qt_5 5.7.1
 _ZTIN8QtCharts13QDateTimeAxisE@Qt_5 5.7.1
 _ZTIN8QtCharts13QLegendMarkerE@Qt_5 5.7.1
 _ZTIN8QtCharts13QLogValueAxisE@Qt_5 5.7.1
 _ZTIN8QtCharts13QSplineSeriesE@Qt_5 5.7.1
 _ZTIN8QtCharts13XYPolarDomainE@Qt_5 5.10.1
 _ZTIN8QtCharts14AbstractDomainE@Qt_5 5.10.1
 _ZTIN8QtCharts14ChartAnimationE@Qt_5 5.10.1
 _ZTIN8QtCharts14ChartPresenterE@Qt_5 5.10.1
 _ZTIN8QtCharts14HorizontalAxisE@Qt_5 5.10.1
 _ZTIN8QtCharts14LegendScrollerE@Qt_5 5.10.1
 _ZTIN8QtCharts14LogXLogYDomainE@Qt_5 5.10.1
 _ZTIN8QtCharts14PolarChartAxisE@Qt_5 5.10.1
 _ZTIN8QtCharts14QBarSetPrivateE@Qt_5 5.10.1
 _ZTIN8QtCharts14QBoxPlotSeriesE@Qt_5 5.7.1
 _ZTIN8QtCharts14QBoxSetPrivateE@Qt_5 5.10.1
 _ZTIN8QtCharts14QLegendPrivateE@Qt_5 5.10.1
 _ZTIN8QtCharts14QScatterSeriesE@Qt_5 5.7.1
 _ZTIN8QtCharts14QXYModelMapperE@Qt_5 5.7.1
 _ZTIN8QtCharts15ChartBackgroundE@Qt_5 5.10.1
 _ZTIN8QtCharts15ChartValueAxisXE@Qt_5 5.10.1
 _ZTIN8QtCharts15ChartValueAxisYE@Qt_5 5.10.1
 _ZTIN8QtCharts15QAbstractSeriesE@Qt_5 5.7.1
 _ZTIN8QtCharts15QBarModelMapperE@Qt_5 5.7.1
 _ZTIN8QtCharts15QCandlestickSetE@Qt_5 5.9.0~rc
 _ZTIN8QtCharts15QHXYModelMapperE@Qt_5 5.7.1
 _ZTIN8QtCharts15QPieModelMapperE@Qt_5 5.7.1
 _ZTIN8QtCharts15QVXYModelMapperE@Qt_5 5.7.1
 _ZTIN8QtCharts15QXYLegendMarkerE@Qt_5 5.7.1
 _ZTIN8QtCharts15RectangleMarkerE@Qt_5 5.10.1
 _ZTIN8QtCharts15SplineAnimationE@Qt_5 5.10.1
 _ZTIN8QtCharts15SplineChartItemE@Qt_5 5.10.1
 _ZTIN8QtCharts16BoxPlotAnimationE@Qt_5 5.10.1
 _ZTIN8QtCharts16BoxPlotChartItemE@Qt_5 5.10.1
 _ZTIN8QtCharts16ChartAxisElementE@Qt_5 5.10.1
 _ZTIN8QtCharts16LegendMarkerItemE@Qt_5 5.10.1
 _ZTIN8QtCharts16LogXYPolarDomainE@Qt_5 5.10.1
 _ZTIN8QtCharts16PolarChartLayoutE@Qt_5 5.10.1
 _ZTIN8QtCharts16QBarCategoryAxisE@Qt_5 5.7.1
 _ZTIN8QtCharts16QBarLegendMarkerE@Qt_5 5.7.1
 _ZTIN8QtCharts16QHBarModelMapperE@Qt_5 5.7.1
 _ZTIN8QtCharts16QHPieModelMapperE@Qt_5 5.7.1
 _ZTIN8QtCharts16QPieLegendMarkerE@Qt_5 5.7.1
 _ZTIN8QtCharts16QPieSlicePrivateE@Qt_5 5.10.1
 _ZTIN8QtCharts16QVBarModelMapperE@Qt_5 5.7.1
 _ZTIN8QtCharts16QVPieModelMapperE@Qt_5 5.7.1
 _ZTIN8QtCharts16QXYSeriesPrivateE@Qt_5 5.10.1
 _ZTIN8QtCharts16ScatterAnimationE@Qt_5 5.10.1
 _ZTIN8QtCharts16ScatterChartItemE@Qt_5 5.10.1
 _ZTIN8QtCharts16XLogYPolarDomainE@Qt_5 5.10.1
 _ZTIN8QtCharts17ChartThemeManagerE@Qt_5 5.10.1
 _ZTIN8QtCharts17PieSliceAnimationE@Qt_5 5.10.1
 _ZTIN8QtCharts17QAreaLegendMarkerE@Qt_5 5.7.1
 _ZTIN8QtCharts17QBarSeriesPrivateE@Qt_5 5.10.1
 _ZTIN8QtCharts17QPercentBarSeriesE@Qt_5 5.7.1
 _ZTIN8QtCharts17QPieSeriesPrivateE@Qt_5 5.10.1
 _ZTIN8QtCharts17QStackedBarSeriesE@Qt_5 5.7.1
 _ZTIN8QtCharts17QValueAxisPrivateE@Qt_5 5.10.1
 _ZTIN8QtCharts18CartesianChartAxisE@Qt_5 5.10.1
 _ZTIN8QtCharts18ChartCategoryAxisXE@Qt_5 5.10.1
 _ZTIN8QtCharts18ChartCategoryAxisYE@Qt_5 5.10.1
 _ZTIN8QtCharts18ChartDateTimeAxisXE@Qt_5 5.10.1
 _ZTIN8QtCharts18ChartDateTimeAxisYE@Qt_5 5.10.1
 _ZTIN8QtCharts18ChartLogValueAxisXE@Qt_5 5.10.1
 _ZTIN8QtCharts18ChartLogValueAxisYE@Qt_5 5.10.1
 _ZTIN8QtCharts18QAbstractBarSeriesE@Qt_5 5.7.1
 _ZTIN8QtCharts18QAreaSeriesPrivateE@Qt_5 5.10.1
 _ZTIN8QtCharts18QCandlestickSeriesE@Qt_5 5.9.0~rc
 _ZTIN8QtCharts18QLineSeriesPrivateE@Qt_5 5.10.1
 _ZTIN8QtCharts19AbstractChartLayoutE@Qt_5 5.10.1
 _ZTIN8QtCharts19LogXLogYPolarDomainE@Qt_5 5.10.1
 _ZTIN8QtCharts19PercentBarChartItemE@Qt_5 5.10.1
 _ZTIN8QtCharts19QBoxPlotModelMapperE@Qt_5 5.7.1
 _ZTIN8QtCharts19StackedBarChartItemE@Qt_5 5.10.1
 _ZTIN8QtCharts20AbstractBarChartItemE@Qt_5 5.10.1
 _ZTIN8QtCharts20BoxWhiskersAnimationE@Qt_5 5.10.1
 _ZTIN8QtCharts20CandlestickAnimationE@Qt_5 5.10.1
 _ZTIN8QtCharts20CandlestickChartItemE@Qt_5 5.10.1
 _ZTIN8QtCharts20CartesianChartLayoutE@Qt_5 5.10.1
 _ZTIN8QtCharts20PolarChartAxisRadialE@Qt_5 5.10.1
 _ZTIN8QtCharts20QAbstractAxisPrivateE@Qt_5 5.10.1
 _ZTIN8QtCharts20QBoxPlotLegendMarkerE@Qt_5 5.7.1
 _ZTIN8QtCharts20QCategoryAxisPrivateE@Qt_5 5.10.1
 _ZTIN8QtCharts20QDateTimeAxisPrivateE@Qt_5 5.10.1
 _ZTIN8QtCharts20QHBoxPlotModelMapperE@Qt_5 5.9.0~rc
 _ZTIN8QtCharts20QHorizontalBarSeriesE@Qt_5 5.7.1
 _ZTIN8QtCharts20QLegendMarkerPrivateE@Qt_5 5.10.1
 _ZTIN8QtCharts20QLogValueAxisPrivateE@Qt_5 5.10.1
 _ZTIN8QtCharts20QSplineSeriesPrivateE@Qt_5 5.10.1
 _ZTIN8QtCharts20QVBoxPlotModelMapperE@Qt_5 5.7.1
 _ZTIN8QtCharts21ChartBarCategoryAxisXE@Qt_5 5.10.1
 _ZTIN8QtCharts21ChartBarCategoryAxisYE@Qt_5 5.10.1
 _ZTIN8QtCharts21GLXYSeriesDataManagerE@Qt_5 5.10.1
 _ZTIN8QtCharts21PolarChartAxisAngularE@Qt_5 5.10.1
 _ZTIN8QtCharts21QBoxPlotSeriesPrivateE@Qt_5 5.10.1
 _ZTIN8QtCharts21QScatterSeriesPrivateE@Qt_5 5.10.1
 _ZTIN8QtCharts21QXYModelMapperPrivateE@Qt_5 5.10.1
 _ZTIN8QtCharts22HorizontalBarChartItemE@Qt_5 5.10.1
 _ZTIN8QtCharts22QAbstractSeriesPrivateE@Qt_5 5.10.1
 _ZTIN8QtCharts22QBarModelMapperPrivateE@Qt_5 5.10.1
 _ZTIN8QtCharts22QCandlestickSetPrivateE@Qt_5 5.10.1
 _ZTIN8QtCharts22QPieModelMapperPrivateE@Qt_5 5.10.1
 _ZTIN8QtCharts22QXYLegendMarkerPrivateE@Qt_5 5.10.1
 _ZTIN8QtCharts23QBarCategoryAxisPrivateE@Qt_5 5.10.1
 _ZTIN8QtCharts23QBarLegendMarkerPrivateE@Qt_5 5.10.1
 _ZTIN8QtCharts23QCandlestickModelMapperE@Qt_5 5.9.0~rc
 _ZTIN8QtCharts23QPieLegendMarkerPrivateE@Qt_5 5.10.1
 _ZTIN8QtCharts24QAreaLegendMarkerPrivateE@Qt_5 5.10.1
 _ZTIN8QtCharts24QCandlestickLegendMarkerE@Qt_5 5.9.0~rc
 _ZTIN8QtCharts24QHCandlestickModelMapperE@Qt_5 5.9.0~rc
 _ZTIN8QtCharts24QPercentBarSeriesPrivateE@Qt_5 5.10.1
 _ZTIN8QtCharts24QStackedBarSeriesPrivateE@Qt_5 5.10.1
 _ZTIN8QtCharts24QVCandlestickModelMapperE@Qt_5 5.9.0~rc
 _ZTIN8QtCharts25PolarChartValueAxisRadialE@Qt_5 5.10.1
 _ZTIN8QtCharts25QAbstractBarSeriesPrivateE@Qt_5 5.10.1
 _ZTIN8QtCharts25QCandlestickSeriesPrivateE@Qt_5 5.10.1
 _ZTIN8QtCharts26PolarChartValueAxisAngularE@Qt_5 5.10.1
 _ZTIN8QtCharts27QBoxPlotLegendMarkerPrivateE@Qt_5 5.10.1
 _ZTIN8QtCharts27QHorizontalBarSeriesPrivateE@Qt_5 5.10.1
 _ZTIN8QtCharts27QHorizontalPercentBarSeriesE@Qt_5 5.7.1
 _ZTIN8QtCharts27QHorizontalStackedBarSeriesE@Qt_5 5.7.1
 _ZTIN8QtCharts28PolarChartCategoryAxisRadialE@Qt_5 5.10.1
 _ZTIN8QtCharts28PolarChartDateTimeAxisRadialE@Qt_5 5.10.1
 _ZTIN8QtCharts28PolarChartLogValueAxisRadialE@Qt_5 5.10.1
 _ZTIN8QtCharts29CandlestickBodyWicksAnimationE@Qt_5 5.10.1
 _ZTIN8QtCharts29HorizontalPercentBarChartItemE@Qt_5 5.10.1
 _ZTIN8QtCharts29HorizontalStackedBarChartItemE@Qt_5 5.10.1
 _ZTIN8QtCharts29PolarChartCategoryAxisAngularE@Qt_5 5.10.1
 _ZTIN8QtCharts29PolarChartDateTimeAxisAngularE@Qt_5 5.10.1
 _ZTIN8QtCharts29PolarChartLogValueAxisAngularE@Qt_5 5.10.1
 _ZTIN8QtCharts30QCandlestickModelMapperPrivateE@Qt_5 5.10.1
 _ZTIN8QtCharts31QCandlestickLegendMarkerPrivateE@Qt_5 5.10.1
 _ZTIN8QtCharts34QHorizontalPercentBarSeriesPrivateE@Qt_5 5.10.1
 _ZTIN8QtCharts34QHorizontalStackedBarSeriesPrivateE@Qt_5 5.10.1
 _ZTIN8QtCharts3BarE@Qt_5 5.10.1
 _ZTIN8QtCharts6QChartE@Qt_5 5.7.1
 _ZTIN8QtCharts7QBarSetE@Qt_5 5.7.1
 _ZTIN8QtCharts7QBoxSetE@Qt_5 5.7.1
 _ZTIN8QtCharts7QLegendE@Qt_5 5.7.1
 _ZTIN8QtCharts7XYChartE@Qt_5 5.10.1
 _ZTIN8QtCharts8ScrollerE@Qt_5 5.10.1
 _ZTIN8QtCharts8XYDomainE@Qt_5 5.10.1
 _ZTIN8QtCharts9ChartItemE@Qt_5 5.10.1
 _ZTIN8QtCharts9QPieSliceE@Qt_5 5.7.1
 _ZTIN8QtCharts9QXYSeriesE@Qt_5 5.7.1
 _ZTS16QOpenGLFunctions@Qt_5 5.7.1
 _ZTSN8QtCharts10ChartTitleE@Qt_5 5.10.1
 _ZTSN8QtCharts10QBarSeriesE@Qt_5 5.7.1
 _ZTSN8QtCharts10QChartViewE@Qt_5 5.7.1
 _ZTSN8QtCharts10QPieSeriesE@Qt_5 5.7.1
 _ZTSN8QtCharts10QValueAxisE@Qt_5 5.7.1
 _ZTSN8QtCharts11BoxWhiskersE@Qt_5 5.10.1
 _ZTSN8QtCharts11CandlestickE@Qt_5 5.10.1
 _ZTSN8QtCharts11LogXYDomainE@Qt_5 5.10.1
 _ZTSN8QtCharts11PolarDomainE@Qt_5 5.10.1
 _ZTSN8QtCharts11QAreaSeriesE@Qt_5 5.7.1
 _ZTSN8QtCharts11QLineSeriesE@Qt_5 5.7.1
 _ZTSN8QtCharts11QPolarChartE@Qt_5 5.7.1
 _ZTSN8QtCharts11XLogYDomainE@Qt_5 5.10.1
 _ZTSN8QtCharts11XYAnimationE@Qt_5 5.10.1
 _ZTSN8QtCharts12BarAnimationE@Qt_5 5.10.1
 _ZTSN8QtCharts12BarChartItemE@Qt_5 5.10.1
 _ZTSN8QtCharts12ChartDataSetE@Qt_5 5.10.1
 _ZTSN8QtCharts12ChartElementE@Qt_5 5.10.1
 _ZTSN8QtCharts12CircleMarkerE@Qt_5 5.10.1
 _ZTSN8QtCharts12LegendLayoutE@Qt_5 5.10.1
 _ZTSN8QtCharts12PieAnimationE@Qt_5 5.10.1
 _ZTSN8QtCharts12PieChartItemE@Qt_5 5.10.1
 _ZTSN8QtCharts12PieSliceItemE@Qt_5 5.10.1
 _ZTSN8QtCharts12ScrollTickerE@Qt_5 5.10.1
 _ZTSN8QtCharts12VerticalAxisE@Qt_5 5.10.1
 _ZTSN8QtCharts13AreaBoundItemE@Qt_5 5.10.1
 _ZTSN8QtCharts13AreaChartItemE@Qt_5 5.10.1
 _ZTSN8QtCharts13AxisAnimationE@Qt_5 5.10.1
 _ZTSN8QtCharts13LineArrowItemE@Qt_5 5.10.1
 _ZTSN8QtCharts13LineChartItemE@Qt_5 5.10.1
 _ZTSN8QtCharts13QAbstractAxisE@Qt_5 5.7.1
 _ZTSN8QtCharts13QCategoryAxisE@Qt_5 5.7.1
 _ZTSN8QtCharts13QDateTimeAxisE@Qt_5 5.7.1
 _ZTSN8QtCharts13QLegendMarkerE@Qt_5 5.7.1
 _ZTSN8QtCharts13QLogValueAxisE@Qt_5 5.7.1
 _ZTSN8QtCharts13QSplineSeriesE@Qt_5 5.7.1
 _ZTSN8QtCharts13XYPolarDomainE@Qt_5 5.10.1
 _ZTSN8QtCharts14AbstractDomainE@Qt_5 5.10.1
 _ZTSN8QtCharts14ChartAnimationE@Qt_5 5.10.1
 _ZTSN8QtCharts14ChartPresenterE@Qt_5 5.10.1
 _ZTSN8QtCharts14HorizontalAxisE@Qt_5 5.10.1
 _ZTSN8QtCharts14LegendScrollerE@Qt_5 5.10.1
 _ZTSN8QtCharts14LogXLogYDomainE@Qt_5 5.10.1
 _ZTSN8QtCharts14PolarChartAxisE@Qt_5 5.10.1
 _ZTSN8QtCharts14QBarSetPrivateE@Qt_5 5.10.1
 _ZTSN8QtCharts14QBoxPlotSeriesE@Qt_5 5.7.1
 _ZTSN8QtCharts14QBoxSetPrivateE@Qt_5 5.10.1
 _ZTSN8QtCharts14QLegendPrivateE@Qt_5 5.10.1
 _ZTSN8QtCharts14QScatterSeriesE@Qt_5 5.7.1
 _ZTSN8QtCharts14QXYModelMapperE@Qt_5 5.7.1
 _ZTSN8QtCharts15ChartBackgroundE@Qt_5 5.10.1
 _ZTSN8QtCharts15ChartValueAxisXE@Qt_5 5.10.1
 _ZTSN8QtCharts15ChartValueAxisYE@Qt_5 5.10.1
 _ZTSN8QtCharts15QAbstractSeriesE@Qt_5 5.7.1
 _ZTSN8QtCharts15QBarModelMapperE@Qt_5 5.7.1
 _ZTSN8QtCharts15QCandlestickSetE@Qt_5 5.9.0~rc
 _ZTSN8QtCharts15QHXYModelMapperE@Qt_5 5.7.1
 _ZTSN8QtCharts15QPieModelMapperE@Qt_5 5.7.1
 _ZTSN8QtCharts15QVXYModelMapperE@Qt_5 5.7.1
 _ZTSN8QtCharts15QXYLegendMarkerE@Qt_5 5.7.1
 _ZTSN8QtCharts15RectangleMarkerE@Qt_5 5.10.1
 _ZTSN8QtCharts15SplineAnimationE@Qt_5 5.10.1
 _ZTSN8QtCharts15SplineChartItemE@Qt_5 5.10.1
 _ZTSN8QtCharts16BoxPlotAnimationE@Qt_5 5.10.1
 _ZTSN8QtCharts16BoxPlotChartItemE@Qt_5 5.10.1
 _ZTSN8QtCharts16ChartAxisElementE@Qt_5 5.10.1
 _ZTSN8QtCharts16LegendMarkerItemE@Qt_5 5.10.1
 _ZTSN8QtCharts16LogXYPolarDomainE@Qt_5 5.10.1
 _ZTSN8QtCharts16PolarChartLayoutE@Qt_5 5.10.1
 _ZTSN8QtCharts16QBarCategoryAxisE@Qt_5 5.7.1
 _ZTSN8QtCharts16QBarLegendMarkerE@Qt_5 5.7.1
 _ZTSN8QtCharts16QHBarModelMapperE@Qt_5 5.7.1
 _ZTSN8QtCharts16QHPieModelMapperE@Qt_5 5.7.1
 _ZTSN8QtCharts16QPieLegendMarkerE@Qt_5 5.7.1
 _ZTSN8QtCharts16QPieSlicePrivateE@Qt_5 5.10.1
 _ZTSN8QtCharts16QVBarModelMapperE@Qt_5 5.7.1
 _ZTSN8QtCharts16QVPieModelMapperE@Qt_5 5.7.1
 _ZTSN8QtCharts16QXYSeriesPrivateE@Qt_5 5.10.1
 _ZTSN8QtCharts16ScatterAnimationE@Qt_5 5.10.1
 _ZTSN8QtCharts16ScatterChartItemE@Qt_5 5.10.1
 _ZTSN8QtCharts16XLogYPolarDomainE@Qt_5 5.10.1
 _ZTSN8QtCharts17ChartThemeManagerE@Qt_5 5.10.1
 _ZTSN8QtCharts17PieSliceAnimationE@Qt_5 5.10.1
 _ZTSN8QtCharts17QAreaLegendMarkerE@Qt_5 5.7.1
 _ZTSN8QtCharts17QBarSeriesPrivateE@Qt_5 5.10.1
 _ZTSN8QtCharts17QPercentBarSeriesE@Qt_5 5.7.1
 _ZTSN8QtCharts17QPieSeriesPrivateE@Qt_5 5.10.1
 _ZTSN8QtCharts17QStackedBarSeriesE@Qt_5 5.7.1
 _ZTSN8QtCharts17QValueAxisPrivateE@Qt_5 5.10.1
 _ZTSN8QtCharts18CartesianChartAxisE@Qt_5 5.10.1
 _ZTSN8QtCharts18ChartCategoryAxisXE@Qt_5 5.10.1
 _ZTSN8QtCharts18ChartCategoryAxisYE@Qt_5 5.10.1
 _ZTSN8QtCharts18ChartDateTimeAxisXE@Qt_5 5.10.1
 _ZTSN8QtCharts18ChartDateTimeAxisYE@Qt_5 5.10.1
 _ZTSN8QtCharts18ChartLogValueAxisXE@Qt_5 5.10.1
 _ZTSN8QtCharts18ChartLogValueAxisYE@Qt_5 5.10.1
 _ZTSN8QtCharts18QAbstractBarSeriesE@Qt_5 5.7.1
 _ZTSN8QtCharts18QAreaSeriesPrivateE@Qt_5 5.10.1
 _ZTSN8QtCharts18QCandlestickSeriesE@Qt_5 5.9.0~rc
 _ZTSN8QtCharts18QLineSeriesPrivateE@Qt_5 5.10.1
 _ZTSN8QtCharts19AbstractChartLayoutE@Qt_5 5.10.1
 _ZTSN8QtCharts19LogXLogYPolarDomainE@Qt_5 5.10.1
 _ZTSN8QtCharts19PercentBarChartItemE@Qt_5 5.10.1
 _ZTSN8QtCharts19QBoxPlotModelMapperE@Qt_5 5.7.1
 _ZTSN8QtCharts19StackedBarChartItemE@Qt_5 5.10.1
 _ZTSN8QtCharts20AbstractBarChartItemE@Qt_5 5.10.1
 _ZTSN8QtCharts20BoxWhiskersAnimationE@Qt_5 5.10.1
 _ZTSN8QtCharts20CandlestickAnimationE@Qt_5 5.10.1
 _ZTSN8QtCharts20CandlestickChartItemE@Qt_5 5.10.1
 _ZTSN8QtCharts20CartesianChartLayoutE@Qt_5 5.10.1
 _ZTSN8QtCharts20PolarChartAxisRadialE@Qt_5 5.10.1
 _ZTSN8QtCharts20QAbstractAxisPrivateE@Qt_5 5.10.1
 _ZTSN8QtCharts20QBoxPlotLegendMarkerE@Qt_5 5.7.1
 _ZTSN8QtCharts20QCategoryAxisPrivateE@Qt_5 5.10.1
 _ZTSN8QtCharts20QDateTimeAxisPrivateE@Qt_5 5.10.1
 _ZTSN8QtCharts20QHBoxPlotModelMapperE@Qt_5 5.9.0~rc
 _ZTSN8QtCharts20QHorizontalBarSeriesE@Qt_5 5.7.1
 _ZTSN8QtCharts20QLegendMarkerPrivateE@Qt_5 5.10.1
 _ZTSN8QtCharts20QLogValueAxisPrivateE@Qt_5 5.10.1
 _ZTSN8QtCharts20QSplineSeriesPrivateE@Qt_5 5.10.1
 _ZTSN8QtCharts20QVBoxPlotModelMapperE@Qt_5 5.7.1
 _ZTSN8QtCharts21ChartBarCategoryAxisXE@Qt_5 5.10.1
 _ZTSN8QtCharts21ChartBarCategoryAxisYE@Qt_5 5.10.1
 _ZTSN8QtCharts21GLXYSeriesDataManagerE@Qt_5 5.10.1
 _ZTSN8QtCharts21PolarChartAxisAngularE@Qt_5 5.10.1
 _ZTSN8QtCharts21QBoxPlotSeriesPrivateE@Qt_5 5.10.1
 _ZTSN8QtCharts21QScatterSeriesPrivateE@Qt_5 5.10.1
 _ZTSN8QtCharts21QXYModelMapperPrivateE@Qt_5 5.10.1
 _ZTSN8QtCharts22HorizontalBarChartItemE@Qt_5 5.10.1
 _ZTSN8QtCharts22QAbstractSeriesPrivateE@Qt_5 5.10.1
 _ZTSN8QtCharts22QBarModelMapperPrivateE@Qt_5 5.10.1
 _ZTSN8QtCharts22QCandlestickSetPrivateE@Qt_5 5.10.1
 _ZTSN8QtCharts22QPieModelMapperPrivateE@Qt_5 5.10.1
 _ZTSN8QtCharts22QXYLegendMarkerPrivateE@Qt_5 5.10.1
 _ZTSN8QtCharts23QBarCategoryAxisPrivateE@Qt_5 5.10.1
 _ZTSN8QtCharts23QBarLegendMarkerPrivateE@Qt_5 5.10.1
 _ZTSN8QtCharts23QCandlestickModelMapperE@Qt_5 5.9.0~rc
 _ZTSN8QtCharts23QPieLegendMarkerPrivateE@Qt_5 5.10.1
 _ZTSN8QtCharts24QAreaLegendMarkerPrivateE@Qt_5 5.10.1
 _ZTSN8QtCharts24QCandlestickLegendMarkerE@Qt_5 5.9.0~rc
 _ZTSN8QtCharts24QHCandlestickModelMapperE@Qt_5 5.9.0~rc
 _ZTSN8QtCharts24QPercentBarSeriesPrivateE@Qt_5 5.10.1
 _ZTSN8QtCharts24QStackedBarSeriesPrivateE@Qt_5 5.10.1
 _ZTSN8QtCharts24QVCandlestickModelMapperE@Qt_5 5.9.0~rc
 _ZTSN8QtCharts25PolarChartValueAxisRadialE@Qt_5 5.10.1
 _ZTSN8QtCharts25QAbstractBarSeriesPrivateE@Qt_5 5.10.1
 _ZTSN8QtCharts25QCandlestickSeriesPrivateE@Qt_5 5.10.1
 _ZTSN8QtCharts26PolarChartValueAxisAngularE@Qt_5 5.10.1
 _ZTSN8QtCharts27QBoxPlotLegendMarkerPrivateE@Qt_5 5.10.1
 _ZTSN8QtCharts27QHorizontalBarSeriesPrivateE@Qt_5 5.10.1
 _ZTSN8QtCharts27QHorizontalPercentBarSeriesE@Qt_5 5.7.1
 _ZTSN8QtCharts27QHorizontalStackedBarSeriesE@Qt_5 5.7.1
 _ZTSN8QtCharts28PolarChartCategoryAxisRadialE@Qt_5 5.10.1
 _ZTSN8QtCharts28PolarChartDateTimeAxisRadialE@Qt_5 5.10.1
 _ZTSN8QtCharts28PolarChartLogValueAxisRadialE@Qt_5 5.10.1
 _ZTSN8QtCharts29CandlestickBodyWicksAnimationE@Qt_5 5.10.1
 _ZTSN8QtCharts29HorizontalPercentBarChartItemE@Qt_5 5.10.1
 _ZTSN8QtCharts29HorizontalStackedBarChartItemE@Qt_5 5.10.1
 _ZTSN8QtCharts29PolarChartCategoryAxisAngularE@Qt_5 5.10.1
 _ZTSN8QtCharts29PolarChartDateTimeAxisAngularE@Qt_5 5.10.1
 _ZTSN8QtCharts29PolarChartLogValueAxisAngularE@Qt_5 5.10.1
 _ZTSN8QtCharts30QCandlestickModelMapperPrivateE@Qt_5 5.10.1
 _ZTSN8QtCharts31QCandlestickLegendMarkerPrivateE@Qt_5 5.10.1
 _ZTSN8QtCharts34QHorizontalPercentBarSeriesPrivateE@Qt_5 5.10.1
 _ZTSN8QtCharts34QHorizontalStackedBarSeriesPrivateE@Qt_5 5.10.1
 _ZTSN8QtCharts3BarE@Qt_5 5.10.1
 _ZTSN8QtCharts6QChartE@Qt_5 5.7.1
 _ZTSN8QtCharts7QBarSetE@Qt_5 5.7.1
 _ZTSN8QtCharts7QBoxSetE@Qt_5 5.7.1
 _ZTSN8QtCharts7QLegendE@Qt_5 5.7.1
 _ZTSN8QtCharts7XYChartE@Qt_5 5.10.1
 _ZTSN8QtCharts8ScrollerE@Qt_5 5.10.1
 _ZTSN8QtCharts8XYDomainE@Qt_5 5.10.1
 _ZTSN8QtCharts9ChartItemE@Qt_5 5.10.1
 _ZTSN8QtCharts9QPieSliceE@Qt_5 5.7.1
 _ZTSN8QtCharts9QXYSeriesE@Qt_5 5.7.1
 _ZTVN8QtCharts10ChartTitleE@Qt_5 5.10.1
 _ZTVN8QtCharts10QBarSeriesE@Qt_5 5.7.1
 _ZTVN8QtCharts10QChartViewE@Qt_5 5.7.1
 _ZTVN8QtCharts10QPieSeriesE@Qt_5 5.7.1
 _ZTVN8QtCharts10QValueAxisE@Qt_5 5.7.1
 _ZTVN8QtCharts11BoxWhiskersE@Qt_5 5.10.1
 _ZTVN8QtCharts11CandlestickE@Qt_5 5.10.1
 _ZTVN8QtCharts11LogXYDomainE@Qt_5 5.10.1
 _ZTVN8QtCharts11PolarDomainE@Qt_5 5.10.1
 _ZTVN8QtCharts11QAreaSeriesE@Qt_5 5.7.1
 _ZTVN8QtCharts11QLineSeriesE@Qt_5 5.7.1
 _ZTVN8QtCharts11QPolarChartE@Qt_5 5.7.1
 _ZTVN8QtCharts11XLogYDomainE@Qt_5 5.10.1
 _ZTVN8QtCharts11XYAnimationE@Qt_5 5.10.1
 _ZTVN8QtCharts12BarAnimationE@Qt_5 5.10.1
 _ZTVN8QtCharts12BarChartItemE@Qt_5 5.10.1
 _ZTVN8QtCharts12ChartDataSetE@Qt_5 5.10.1
 _ZTVN8QtCharts12ChartElementE@Qt_5 5.10.1
 _ZTVN8QtCharts12CircleMarkerE@Qt_5 5.10.1
 _ZTVN8QtCharts12LegendLayoutE@Qt_5 5.10.1
 _ZTVN8QtCharts12PieAnimationE@Qt_5 5.10.1
 _ZTVN8QtCharts12PieChartItemE@Qt_5 5.10.1
 _ZTVN8QtCharts12PieSliceItemE@Qt_5 5.10.1
 _ZTVN8QtCharts12ScrollTickerE@Qt_5 5.10.1
 _ZTVN8QtCharts12VerticalAxisE@Qt_5 5.10.1
 _ZTVN8QtCharts13AreaBoundItemE@Qt_5 5.10.1
 _ZTVN8QtCharts13AreaChartItemE@Qt_5 5.10.1
 _ZTVN8QtCharts13AxisAnimationE@Qt_5 5.10.1
 _ZTVN8QtCharts13LineArrowItemE@Qt_5 5.10.1
 _ZTVN8QtCharts13LineChartItemE@Qt_5 5.10.1
 _ZTVN8QtCharts13QAbstractAxisE@Qt_5 5.7.1
 _ZTVN8QtCharts13QCategoryAxisE@Qt_5 5.7.1
 _ZTVN8QtCharts13QDateTimeAxisE@Qt_5 5.7.1
 _ZTVN8QtCharts13QLegendMarkerE@Qt_5 5.7.1
 _ZTVN8QtCharts13QLogValueAxisE@Qt_5 5.7.1
 _ZTVN8QtCharts13QSplineSeriesE@Qt_5 5.7.1
 _ZTVN8QtCharts13XYPolarDomainE@Qt_5 5.10.1
 _ZTVN8QtCharts14AbstractDomainE@Qt_5 5.10.1
 _ZTVN8QtCharts14ChartAnimationE@Qt_5 5.10.1
 _ZTVN8QtCharts14ChartPresenterE@Qt_5 5.10.1
 _ZTVN8QtCharts14HorizontalAxisE@Qt_5 5.10.1
 _ZTVN8QtCharts14LegendScrollerE@Qt_5 5.10.1
 _ZTVN8QtCharts14LogXLogYDomainE@Qt_5 5.10.1
 _ZTVN8QtCharts14PolarChartAxisE@Qt_5 5.10.1
 _ZTVN8QtCharts14QBarSetPrivateE@Qt_5 5.10.1
 _ZTVN8QtCharts14QBoxPlotSeriesE@Qt_5 5.7.1
 _ZTVN8QtCharts14QBoxSetPrivateE@Qt_5 5.10.1
 _ZTVN8QtCharts14QLegendPrivateE@Qt_5 5.10.1
 _ZTVN8QtCharts14QScatterSeriesE@Qt_5 5.7.1
 _ZTVN8QtCharts14QXYModelMapperE@Qt_5 5.7.1
 _ZTVN8QtCharts15ChartBackgroundE@Qt_5 5.10.1
 _ZTVN8QtCharts15ChartValueAxisXE@Qt_5 5.10.1
 _ZTVN8QtCharts15ChartValueAxisYE@Qt_5 5.10.1
 _ZTVN8QtCharts15QAbstractSeriesE@Qt_5 5.7.1
 _ZTVN8QtCharts15QBarModelMapperE@Qt_5 5.7.1
 _ZTVN8QtCharts15QCandlestickSetE@Qt_5 5.9.0~rc
 _ZTVN8QtCharts15QHXYModelMapperE@Qt_5 5.7.1
 _ZTVN8QtCharts15QPieModelMapperE@Qt_5 5.7.1
 _ZTVN8QtCharts15QVXYModelMapperE@Qt_5 5.7.1
 _ZTVN8QtCharts15QXYLegendMarkerE@Qt_5 5.7.1
 _ZTVN8QtCharts15RectangleMarkerE@Qt_5 5.10.1
 _ZTVN8QtCharts15SplineAnimationE@Qt_5 5.10.1
 _ZTVN8QtCharts15SplineChartItemE@Qt_5 5.10.1
 _ZTVN8QtCharts16BoxPlotAnimationE@Qt_5 5.10.1
 _ZTVN8QtCharts16BoxPlotChartItemE@Qt_5 5.10.1
 _ZTVN8QtCharts16ChartAxisElementE@Qt_5 5.10.1
 _ZTVN8QtCharts16LegendMarkerItemE@Qt_5 5.10.1
 _ZTVN8QtCharts16LogXYPolarDomainE@Qt_5 5.10.1
 _ZTVN8QtCharts16PolarChartLayoutE@Qt_5 5.10.1
 _ZTVN8QtCharts16QBarCategoryAxisE@Qt_5 5.7.1
 _ZTVN8QtCharts16QBarLegendMarkerE@Qt_5 5.7.1
 _ZTVN8QtCharts16QHBarModelMapperE@Qt_5 5.7.1
 _ZTVN8QtCharts16QHPieModelMapperE@Qt_5 5.7.1
 _ZTVN8QtCharts16QPieLegendMarkerE@Qt_5 5.7.1
 _ZTVN8QtCharts16QPieSlicePrivateE@Qt_5 5.10.1
 _ZTVN8QtCharts16QVBarModelMapperE@Qt_5 5.7.1
 _ZTVN8QtCharts16QVPieModelMapperE@Qt_5 5.7.1
 _ZTVN8QtCharts16QXYSeriesPrivateE@Qt_5 5.10.1
 _ZTVN8QtCharts16ScatterAnimationE@Qt_5 5.10.1
 _ZTVN8QtCharts16ScatterChartItemE@Qt_5 5.10.1
 _ZTVN8QtCharts16XLogYPolarDomainE@Qt_5 5.10.1
 _ZTVN8QtCharts17ChartThemeManagerE@Qt_5 5.10.1
 _ZTVN8QtCharts17PieSliceAnimationE@Qt_5 5.10.1
 _ZTVN8QtCharts17QAreaLegendMarkerE@Qt_5 5.7.1
 _ZTVN8QtCharts17QBarSeriesPrivateE@Qt_5 5.10.1
 _ZTVN8QtCharts17QPercentBarSeriesE@Qt_5 5.7.1
 _ZTVN8QtCharts17QPieSeriesPrivateE@Qt_5 5.10.1
 _ZTVN8QtCharts17QStackedBarSeriesE@Qt_5 5.7.1
 _ZTVN8QtCharts17QValueAxisPrivateE@Qt_5 5.10.1
 _ZTVN8QtCharts18CartesianChartAxisE@Qt_5 5.10.1
 _ZTVN8QtCharts18ChartCategoryAxisXE@Qt_5 5.10.1
 _ZTVN8QtCharts18ChartCategoryAxisYE@Qt_5 5.10.1
 _ZTVN8QtCharts18ChartDateTimeAxisXE@Qt_5 5.10.1
 _ZTVN8QtCharts18ChartDateTimeAxisYE@Qt_5 5.10.1
 _ZTVN8QtCharts18ChartLogValueAxisXE@Qt_5 5.10.1
 _ZTVN8QtCharts18ChartLogValueAxisYE@Qt_5 5.10.1
 _ZTVN8QtCharts18QAbstractBarSeriesE@Qt_5 5.7.1
 _ZTVN8QtCharts18QAreaSeriesPrivateE@Qt_5 5.10.1
 _ZTVN8QtCharts18QCandlestickSeriesE@Qt_5 5.9.0~rc
 _ZTVN8QtCharts18QLineSeriesPrivateE@Qt_5 5.10.1
 _ZTVN8QtCharts19AbstractChartLayoutE@Qt_5 5.10.1
 _ZTVN8QtCharts19LogXLogYPolarDomainE@Qt_5 5.10.1
 _ZTVN8QtCharts19PercentBarChartItemE@Qt_5 5.10.1
 _ZTVN8QtCharts19QBoxPlotModelMapperE@Qt_5 5.7.1
 _ZTVN8QtCharts19StackedBarChartItemE@Qt_5 5.10.1
 _ZTVN8QtCharts20AbstractBarChartItemE@Qt_5 5.10.1
 _ZTVN8QtCharts20BoxWhiskersAnimationE@Qt_5 5.10.1
 _ZTVN8QtCharts20CandlestickAnimationE@Qt_5 5.10.1
 _ZTVN8QtCharts20CandlestickChartItemE@Qt_5 5.10.1
 _ZTVN8QtCharts20CartesianChartLayoutE@Qt_5 5.10.1
 _ZTVN8QtCharts20PolarChartAxisRadialE@Qt_5 5.10.1
 _ZTVN8QtCharts20QAbstractAxisPrivateE@Qt_5 5.10.1
 _ZTVN8QtCharts20QBoxPlotLegendMarkerE@Qt_5 5.7.1
 _ZTVN8QtCharts20QCategoryAxisPrivateE@Qt_5 5.10.1
 _ZTVN8QtCharts20QDateTimeAxisPrivateE@Qt_5 5.10.1
 _ZTVN8QtCharts20QHBoxPlotModelMapperE@Qt_5 5.9.0~rc
 _ZTVN8QtCharts20QHorizontalBarSeriesE@Qt_5 5.7.1
 _ZTVN8QtCharts20QLegendMarkerPrivateE@Qt_5 5.10.1
 _ZTVN8QtCharts20QLogValueAxisPrivateE@Qt_5 5.10.1
 _ZTVN8QtCharts20QSplineSeriesPrivateE@Qt_5 5.10.1
 _ZTVN8QtCharts20QVBoxPlotModelMapperE@Qt_5 5.7.1
 _ZTVN8QtCharts21ChartBarCategoryAxisXE@Qt_5 5.10.1
 _ZTVN8QtCharts21ChartBarCategoryAxisYE@Qt_5 5.10.1
 _ZTVN8QtCharts21GLXYSeriesDataManagerE@Qt_5 5.10.1
 _ZTVN8QtCharts21PolarChartAxisAngularE@Qt_5 5.10.1
 _ZTVN8QtCharts21QBoxPlotSeriesPrivateE@Qt_5 5.10.1
 _ZTVN8QtCharts21QScatterSeriesPrivateE@Qt_5 5.10.1
 _ZTVN8QtCharts21QXYModelMapperPrivateE@Qt_5 5.10.1
 _ZTVN8QtCharts22HorizontalBarChartItemE@Qt_5 5.10.1
 _ZTVN8QtCharts22QAbstractSeriesPrivateE@Qt_5 5.10.1
 _ZTVN8QtCharts22QBarModelMapperPrivateE@Qt_5 5.10.1
 _ZTVN8QtCharts22QCandlestickSetPrivateE@Qt_5 5.10.1
 _ZTVN8QtCharts22QPieModelMapperPrivateE@Qt_5 5.10.1
 _ZTVN8QtCharts22QXYLegendMarkerPrivateE@Qt_5 5.10.1
 _ZTVN8QtCharts23QBarCategoryAxisPrivateE@Qt_5 5.10.1
 _ZTVN8QtCharts23QBarLegendMarkerPrivateE@Qt_5 5.10.1
 _ZTVN8QtCharts23QCandlestickModelMapperE@Qt_5 5.9.0~rc
 _ZTVN8QtCharts23QPieLegendMarkerPrivateE@Qt_5 5.10.1
 _ZTVN8QtCharts24QAreaLegendMarkerPrivateE@Qt_5 5.10.1
 _ZTVN8QtCharts24QCandlestickLegendMarkerE@Qt_5 5.9.0~rc
 _ZTVN8QtCharts24QHCandlestickModelMapperE@Qt_5 5.9.0~rc
 _ZTVN8QtCharts24QPercentBarSeriesPrivateE@Qt_5 5.10.1
 _ZTVN8QtCharts24QStackedBarSeriesPrivateE@Qt_5 5.10.1
 _ZTVN8QtCharts24QVCandlestickModelMapperE@Qt_5 5.9.0~rc
 _ZTVN8QtCharts25PolarChartValueAxisRadialE@Qt_5 5.10.1
 _ZTVN8QtCharts25QAbstractBarSeriesPrivateE@Qt_5 5.10.1
 _ZTVN8QtCharts25QCandlestickSeriesPrivateE@Qt_5 5.10.1
 _ZTVN8QtCharts26PolarChartValueAxisAngularE@Qt_5 5.10.1
 _ZTVN8QtCharts27QBoxPlotLegendMarkerPrivateE@Qt_5 5.10.1
 _ZTVN8QtCharts27QHorizontalBarSeriesPrivateE@Qt_5 5.10.1
 _ZTVN8QtCharts27QHorizontalPercentBarSeriesE@Qt_5 5.7.1
 _ZTVN8QtCharts27QHorizontalStackedBarSeriesE@Qt_5 5.7.1
 _ZTVN8QtCharts28PolarChartCategoryAxisRadialE@Qt_5 5.10.1
 _ZTVN8QtCharts28PolarChartDateTimeAxisRadialE@Qt_5 5.10.1
 _ZTVN8QtCharts28PolarChartLogValueAxisRadialE@Qt_5 5.10.1
 _ZTVN8QtCharts29CandlestickBodyWicksAnimationE@Qt_5 5.10.1
 _ZTVN8QtCharts29HorizontalPercentBarChartItemE@Qt_5 5.10.1
 _ZTVN8QtCharts29HorizontalStackedBarChartItemE@Qt_5 5.10.1
 _ZTVN8QtCharts29PolarChartCategoryAxisAngularE@Qt_5 5.10.1
 _ZTVN8QtCharts29PolarChartDateTimeAxisAngularE@Qt_5 5.10.1
 _ZTVN8QtCharts29PolarChartLogValueAxisAngularE@Qt_5 5.10.1
 _ZTVN8QtCharts30QCandlestickModelMapperPrivateE@Qt_5 5.10.1
 _ZTVN8QtCharts31QCandlestickLegendMarkerPrivateE@Qt_5 5.10.1
 _ZTVN8QtCharts34QHorizontalPercentBarSeriesPrivateE@Qt_5 5.10.1
 _ZTVN8QtCharts34QHorizontalStackedBarSeriesPrivateE@Qt_5 5.10.1
 _ZTVN8QtCharts3BarE@Qt_5 5.10.1
 _ZTVN8QtCharts6QChartE@Qt_5 5.7.1
 _ZTVN8QtCharts7QBarSetE@Qt_5 5.7.1
 _ZTVN8QtCharts7QBoxSetE@Qt_5 5.7.1
 _ZTVN8QtCharts7QLegendE@Qt_5 5.7.1
 _ZTVN8QtCharts7XYChartE@Qt_5 5.10.1
 _ZTVN8QtCharts8ScrollerE@Qt_5 5.10.1
 _ZTVN8QtCharts8XYDomainE@Qt_5 5.10.1
 _ZTVN8QtCharts9ChartItemE@Qt_5 5.10.1
 _ZTVN8QtCharts9QPieSliceE@Qt_5 5.7.1
 _ZTVN8QtCharts9QXYSeriesE@Qt_5 5.7.1
 _ZThn16_N8QtCharts11QPolarChartD0Ev@Qt_5 5.7.1
 _ZThn16_N8QtCharts11QPolarChartD1Ev@Qt_5 5.7.1
 _ZThn16_N8QtCharts16LegendMarkerItem11setGeometryERK6QRectF@Qt_5 5.10.1
 _ZThn16_N8QtCharts16LegendMarkerItemD0Ev@Qt_5 5.10.1
 _ZThn16_N8QtCharts16LegendMarkerItemD1Ev@Qt_5 5.10.1
 _ZThn16_N8QtCharts6QChartD0Ev@Qt_5 5.7.1
 _ZThn16_N8QtCharts6QChartD1Ev@Qt_5 5.7.1
 _ZThn16_N8QtCharts7QLegendD0Ev@Qt_5 5.7.1
 _ZThn16_N8QtCharts7QLegendD1Ev@Qt_5 5.7.1
 _ZThn16_NK8QtCharts16LegendMarkerItem8sizeHintEN2Qt8SizeHintERK6QSizeF@Qt_5 5.10.1
 _ZThn28_N8QtCharts12VerticalAxis14updateGeometryEv@Qt_5 5.10.1
 _ZThn28_N8QtCharts12VerticalAxisD0Ev@Qt_5 5.10.1
 _ZThn28_N8QtCharts12VerticalAxisD1Ev@Qt_5 5.10.1
 _ZThn28_N8QtCharts14HorizontalAxis14updateGeometryEv@Qt_5 5.10.1
 _ZThn28_N8QtCharts14HorizontalAxisD0Ev@Qt_5 5.10.1
 _ZThn28_N8QtCharts14HorizontalAxisD1Ev@Qt_5 5.10.1
 _ZThn28_N8QtCharts14PolarChartAxisD0Ev@Qt_5 5.10.1
 _ZThn28_N8QtCharts14PolarChartAxisD1Ev@Qt_5 5.10.1
 _ZThn28_N8QtCharts15ChartValueAxisX14updateGeometryEv@Qt_5 5.10.1
 _ZThn28_N8QtCharts15ChartValueAxisXD0Ev@Qt_5 5.10.1
 _ZThn28_N8QtCharts15ChartValueAxisXD1Ev@Qt_5 5.10.1
 _ZThn28_N8QtCharts15ChartValueAxisY14updateGeometryEv@Qt_5 5.10.1
 _ZThn28_N8QtCharts15ChartValueAxisYD0Ev@Qt_5 5.10.1
 _ZThn28_N8QtCharts15ChartValueAxisYD1Ev@Qt_5 5.10.1
 _ZThn28_N8QtCharts16ChartAxisElementD0Ev@Qt_5 5.10.1
 _ZThn28_N8QtCharts16ChartAxisElementD1Ev@Qt_5 5.10.1
 _ZThn28_N8QtCharts18CartesianChartAxisD0Ev@Qt_5 5.10.1
 _ZThn28_N8QtCharts18CartesianChartAxisD1Ev@Qt_5 5.10.1
 _ZThn28_N8QtCharts18ChartCategoryAxisX14updateGeometryEv@Qt_5 5.10.1
 _ZThn28_N8QtCharts18ChartCategoryAxisXD0Ev@Qt_5 5.10.1
 _ZThn28_N8QtCharts18ChartCategoryAxisXD1Ev@Qt_5 5.10.1
 _ZThn28_N8QtCharts18ChartCategoryAxisY14updateGeometryEv@Qt_5 5.10.1
 _ZThn28_N8QtCharts18ChartCategoryAxisYD0Ev@Qt_5 5.10.1
 _ZThn28_N8QtCharts18ChartCategoryAxisYD1Ev@Qt_5 5.10.1
 _ZThn28_N8QtCharts18ChartDateTimeAxisX14updateGeometryEv@Qt_5 5.10.1
 _ZThn28_N8QtCharts18ChartDateTimeAxisXD0Ev@Qt_5 5.10.1
 _ZThn28_N8QtCharts18ChartDateTimeAxisXD1Ev@Qt_5 5.10.1
 _ZThn28_N8QtCharts18ChartDateTimeAxisY14updateGeometryEv@Qt_5 5.10.1
 _ZThn28_N8QtCharts18ChartDateTimeAxisYD0Ev@Qt_5 5.10.1
 _ZThn28_N8QtCharts18ChartDateTimeAxisYD1Ev@Qt_5 5.10.1
 _ZThn28_N8QtCharts18ChartLogValueAxisX14updateGeometryEv@Qt_5 5.10.1
 _ZThn28_N8QtCharts18ChartLogValueAxisXD0Ev@Qt_5 5.10.1
 _ZThn28_N8QtCharts18ChartLogValueAxisXD1Ev@Qt_5 5.10.1
 _ZThn28_N8QtCharts18ChartLogValueAxisY14updateGeometryEv@Qt_5 5.10.1
 _ZThn28_N8QtCharts18ChartLogValueAxisYD0Ev@Qt_5 5.10.1
 _ZThn28_N8QtCharts18ChartLogValueAxisYD1Ev@Qt_5 5.10.1
 _ZThn28_N8QtCharts20PolarChartAxisRadial14updateGeometryEv@Qt_5 5.10.1
 _ZThn28_N8QtCharts20PolarChartAxisRadialD0Ev@Qt_5 5.10.1
 _ZThn28_N8QtCharts20PolarChartAxisRadialD1Ev@Qt_5 5.10.1
 _ZThn28_N8QtCharts21ChartBarCategoryAxisX14updateGeometryEv@Qt_5 5.10.1
 _ZThn28_N8QtCharts21ChartBarCategoryAxisXD0Ev@Qt_5 5.10.1
 _ZThn28_N8QtCharts21ChartBarCategoryAxisXD1Ev@Qt_5 5.10.1
 _ZThn28_N8QtCharts21ChartBarCategoryAxisY14updateGeometryEv@Qt_5 5.10.1
 _ZThn28_N8QtCharts21ChartBarCategoryAxisYD0Ev@Qt_5 5.10.1
 _ZThn28_N8QtCharts21ChartBarCategoryAxisYD1Ev@Qt_5 5.10.1
 _ZThn28_N8QtCharts21PolarChartAxisAngular14updateGeometryEv@Qt_5 5.10.1
 _ZThn28_N8QtCharts21PolarChartAxisAngularD0Ev@Qt_5 5.10.1
 _ZThn28_N8QtCharts21PolarChartAxisAngularD1Ev@Qt_5 5.10.1
 _ZThn28_N8QtCharts25PolarChartValueAxisRadialD0Ev@Qt_5 5.10.1
 _ZThn28_N8QtCharts25PolarChartValueAxisRadialD1Ev@Qt_5 5.10.1
 _ZThn28_N8QtCharts26PolarChartValueAxisAngularD0Ev@Qt_5 5.10.1
 _ZThn28_N8QtCharts26PolarChartValueAxisAngularD1Ev@Qt_5 5.10.1
 _ZThn28_N8QtCharts28PolarChartCategoryAxisRadialD0Ev@Qt_5 5.10.1
 _ZThn28_N8QtCharts28PolarChartCategoryAxisRadialD1Ev@Qt_5 5.10.1
 _ZThn28_N8QtCharts28PolarChartDateTimeAxisRadialD0Ev@Qt_5 5.10.1
 _ZThn28_N8QtCharts28PolarChartDateTimeAxisRadialD1Ev@Qt_5 5.10.1
 _ZThn28_N8QtCharts28PolarChartLogValueAxisRadialD0Ev@Qt_5 5.10.1
 _ZThn28_N8QtCharts28PolarChartLogValueAxisRadialD1Ev@Qt_5 5.10.1
 _ZThn28_N8QtCharts29PolarChartCategoryAxisAngularD0Ev@Qt_5 5.10.1
 _ZThn28_N8QtCharts29PolarChartCategoryAxisAngularD1Ev@Qt_5 5.10.1
 _ZThn28_N8QtCharts29PolarChartDateTimeAxisAngularD0Ev@Qt_5 5.10.1
 _ZThn28_N8QtCharts29PolarChartDateTimeAxisAngularD1Ev@Qt_5 5.10.1
 _ZThn28_N8QtCharts29PolarChartLogValueAxisAngularD0Ev@Qt_5 5.10.1
 _ZThn28_N8QtCharts29PolarChartLogValueAxisAngularD1Ev@Qt_5 5.10.1
 _ZThn28_NK8QtCharts12VerticalAxis8sizeHintEN2Qt8SizeHintERK6QSizeF@Qt_5 5.10.1
 _ZThn28_NK8QtCharts14HorizontalAxis8sizeHintEN2Qt8SizeHintERK6QSizeF@Qt_5 5.10.1
 _ZThn28_NK8QtCharts15ChartValueAxisX8sizeHintEN2Qt8SizeHintERK6QSizeF@Qt_5 5.10.1
 _ZThn28_NK8QtCharts15ChartValueAxisY8sizeHintEN2Qt8SizeHintERK6QSizeF@Qt_5 5.10.1
 _ZThn28_NK8QtCharts18CartesianChartAxis8sizeHintEN2Qt8SizeHintERK6QSizeF@Qt_5 5.10.1
 _ZThn28_NK8QtCharts18ChartCategoryAxisX8sizeHintEN2Qt8SizeHintERK6QSizeF@Qt_5 5.10.1
 _ZThn28_NK8QtCharts18ChartCategoryAxisY8sizeHintEN2Qt8SizeHintERK6QSizeF@Qt_5 5.10.1
 _ZThn28_NK8QtCharts18ChartDateTimeAxisX8sizeHintEN2Qt8SizeHintERK6QSizeF@Qt_5 5.10.1
 _ZThn28_NK8QtCharts18ChartDateTimeAxisY8sizeHintEN2Qt8SizeHintERK6QSizeF@Qt_5 5.10.1
 _ZThn28_NK8QtCharts18ChartLogValueAxisX8sizeHintEN2Qt8SizeHintERK6QSizeF@Qt_5 5.10.1
 _ZThn28_NK8QtCharts18ChartLogValueAxisY8sizeHintEN2Qt8SizeHintERK6QSizeF@Qt_5 5.10.1
 _ZThn28_NK8QtCharts20PolarChartAxisRadial8sizeHintEN2Qt8SizeHintERK6QSizeF@Qt_5 5.10.1
 _ZThn28_NK8QtCharts21ChartBarCategoryAxisX8sizeHintEN2Qt8SizeHintERK6QSizeF@Qt_5 5.10.1
 _ZThn28_NK8QtCharts21ChartBarCategoryAxisY8sizeHintEN2Qt8SizeHintERK6QSizeF@Qt_5 5.10.1
 _ZThn28_NK8QtCharts21PolarChartAxisAngular8sizeHintEN2Qt8SizeHintERK6QSizeF@Qt_5 5.10.1
 _ZThn32_N8QtCharts14LegendScroller9setOffsetERK7QPointF@Qt_5 5.10.1
 _ZThn32_NK8QtCharts14LegendScroller6offsetEv@Qt_5 5.10.1
 _ZThn8_N8QtCharts10ChartTitleD0Ev@Qt_5 5.10.1
 _ZThn8_N8QtCharts10ChartTitleD1Ev@Qt_5 5.10.1
 _ZThn8_N8QtCharts10QChartViewD0Ev@Qt_5 5.7.1
 _ZThn8_N8QtCharts10QChartViewD1Ev@Qt_5 5.7.1
 _ZThn8_N8QtCharts11BoxWhiskers15hoverEnterEventEP24QGraphicsSceneHoverEvent@Qt_5 5.10.1
 _ZThn8_N8QtCharts11BoxWhiskers15hoverLeaveEventEP24QGraphicsSceneHoverEvent@Qt_5 5.10.1
 _ZThn8_N8QtCharts11BoxWhiskers15mousePressEventEP24QGraphicsSceneMouseEvent@Qt_5 5.10.1
 _ZThn8_N8QtCharts11BoxWhiskers17mouseReleaseEventEP24QGraphicsSceneMouseEvent@Qt_5 5.10.1
 _ZThn8_N8QtCharts11BoxWhiskers21mouseDoubleClickEventEP24QGraphicsSceneMouseEvent@Qt_5 5.10.1
 _ZThn8_N8QtCharts11BoxWhiskers5paintEP8QPainterPK24QStyleOptionGraphicsItemP7QWidget@Qt_5 5.10.1
 _ZThn8_N8QtCharts11BoxWhiskersD0Ev@Qt_5 5.10.1
 _ZThn8_N8QtCharts11BoxWhiskersD1Ev@Qt_5 5.10.1
 _ZThn8_N8QtCharts11Candlestick15hoverEnterEventEP24QGraphicsSceneHoverEvent@Qt_5 5.10.1
 _ZThn8_N8QtCharts11Candlestick15hoverLeaveEventEP24QGraphicsSceneHoverEvent@Qt_5 5.10.1
 _ZThn8_N8QtCharts11Candlestick15mousePressEventEP24QGraphicsSceneMouseEvent@Qt_5 5.10.1
 _ZThn8_N8QtCharts11Candlestick17mouseReleaseEventEP24QGraphicsSceneMouseEvent@Qt_5 5.10.1
 _ZThn8_N8QtCharts11Candlestick21mouseDoubleClickEventEP24QGraphicsSceneMouseEvent@Qt_5 5.10.1
 _ZThn8_N8QtCharts11Candlestick5paintEP8QPainterPK24QStyleOptionGraphicsItemP7QWidget@Qt_5 5.10.1
 _ZThn8_N8QtCharts11CandlestickD0Ev@Qt_5 5.10.1
 _ZThn8_N8QtCharts11CandlestickD1Ev@Qt_5 5.10.1
 _ZThn8_N8QtCharts11QPolarChartD0Ev@Qt_5 5.7.1
 _ZThn8_N8QtCharts11QPolarChartD1Ev@Qt_5 5.7.1
 _ZThn8_N8QtCharts12PieChartItem15hoverEnterEventEP24QGraphicsSceneHoverEvent@Qt_5 5.10.1
 _ZThn8_N8QtCharts12PieChartItem15hoverLeaveEventEP24QGraphicsSceneHoverEvent@Qt_5 5.10.1
 _ZThn8_N8QtCharts12PieChartItem15mousePressEventEP24QGraphicsSceneMouseEvent@Qt_5 5.10.1
 _ZThn8_N8QtCharts12PieChartItem17mouseReleaseEventEP24QGraphicsSceneMouseEvent@Qt_5 5.10.1
 _ZThn8_N8QtCharts12PieChartItem21mouseDoubleClickEventEP24QGraphicsSceneMouseEvent@Qt_5 5.10.1
 _ZThn8_N8QtCharts12PieChartItemD0Ev@Qt_5 5.10.1
 _ZThn8_N8QtCharts12PieChartItemD1Ev@Qt_5 5.10.1
 _ZThn8_N8QtCharts12PieSliceItem15hoverEnterEventEP24QGraphicsSceneHoverEvent@Qt_5 5.10.1
 _ZThn8_N8QtCharts12PieSliceItem15hoverLeaveEventEP24QGraphicsSceneHoverEvent@Qt_5 5.10.1
 _ZThn8_N8QtCharts12PieSliceItem15mousePressEventEP24QGraphicsSceneMouseEvent@Qt_5 5.10.1
 _ZThn8_N8QtCharts12PieSliceItem17mouseReleaseEventEP24QGraphicsSceneMouseEvent@Qt_5 5.10.1
 _ZThn8_N8QtCharts12PieSliceItem21mouseDoubleClickEventEP24QGraphicsSceneMouseEvent@Qt_5 5.10.1
 _ZThn8_N8QtCharts12PieSliceItem5paintEP8QPainterPK24QStyleOptionGraphicsItemP7QWidget@Qt_5 5.10.1
 _ZThn8_N8QtCharts12PieSliceItemD0Ev@Qt_5 5.10.1
 _ZThn8_N8QtCharts12PieSliceItemD1Ev@Qt_5 5.10.1
 _ZThn8_N8QtCharts12VerticalAxisD0Ev@Qt_5 5.10.1
 _ZThn8_N8QtCharts12VerticalAxisD1Ev@Qt_5 5.10.1
 _ZThn8_N8QtCharts13AreaChartItem15hoverEnterEventEP24QGraphicsSceneHoverEvent@Qt_5 5.10.1
 _ZThn8_N8QtCharts13AreaChartItem15hoverLeaveEventEP24QGraphicsSceneHoverEvent@Qt_5 5.10.1
 _ZThn8_N8QtCharts13AreaChartItem15mousePressEventEP24QGraphicsSceneMouseEvent@Qt_5 5.10.1
 _ZThn8_N8QtCharts13AreaChartItem17mouseReleaseEventEP24QGraphicsSceneMouseEvent@Qt_5 5.10.1
 _ZThn8_N8QtCharts13AreaChartItem21mouseDoubleClickEventEP24QGraphicsSceneMouseEvent@Qt_5 5.10.1
 _ZThn8_N8QtCharts13AreaChartItem5paintEP8QPainterPK24QStyleOptionGraphicsItemP7QWidget@Qt_5 5.10.1
 _ZThn8_N8QtCharts13AreaChartItemD0Ev@Qt_5 5.10.1
 _ZThn8_N8QtCharts13AreaChartItemD1Ev@Qt_5 5.10.1
 _ZThn8_N8QtCharts13LineChartItem15hoverEnterEventEP24QGraphicsSceneHoverEvent@Qt_5 5.10.1
 _ZThn8_N8QtCharts13LineChartItem15hoverLeaveEventEP24QGraphicsSceneHoverEvent@Qt_5 5.10.1
 _ZThn8_N8QtCharts13LineChartItem15mousePressEventEP24QGraphicsSceneMouseEvent@Qt_5 5.10.1
 _ZThn8_N8QtCharts13LineChartItem17mouseReleaseEventEP24QGraphicsSceneMouseEvent@Qt_5 5.10.1
 _ZThn8_N8QtCharts13LineChartItem21mouseDoubleClickEventEP24QGraphicsSceneMouseEvent@Qt_5 5.10.1
 _ZThn8_N8QtCharts13LineChartItem5paintEP8QPainterPK24QStyleOptionGraphicsItemP7QWidget@Qt_5 5.10.1
 _ZThn8_N8QtCharts14HorizontalAxisD0Ev@Qt_5 5.10.1
 _ZThn8_N8QtCharts14HorizontalAxisD1Ev@Qt_5 5.10.1
 _ZThn8_N8QtCharts14LegendScroller14mouseMoveEventEP24QGraphicsSceneMouseEvent@Qt_5 5.10.1
 _ZThn8_N8QtCharts14LegendScroller15mousePressEventEP24QGraphicsSceneMouseEvent@Qt_5 5.10.1
 _ZThn8_N8QtCharts14LegendScroller17mouseReleaseEventEP24QGraphicsSceneMouseEvent@Qt_5 5.10.1
 _ZThn8_N8QtCharts14PolarChartAxisD0Ev@Qt_5 5.10.1
 _ZThn8_N8QtCharts14PolarChartAxisD1Ev@Qt_5 5.10.1
 _ZThn8_N8QtCharts15ChartValueAxisXD0Ev@Qt_5 5.10.1
 _ZThn8_N8QtCharts15ChartValueAxisXD1Ev@Qt_5 5.10.1
 _ZThn8_N8QtCharts15ChartValueAxisYD0Ev@Qt_5 5.10.1
 _ZThn8_N8QtCharts15ChartValueAxisYD1Ev@Qt_5 5.10.1
 _ZThn8_N8QtCharts15SplineChartItem15hoverEnterEventEP24QGraphicsSceneHoverEvent@Qt_5 5.10.1
 _ZThn8_N8QtCharts15SplineChartItem15hoverLeaveEventEP24QGraphicsSceneHoverEvent@Qt_5 5.10.1
 _ZThn8_N8QtCharts15SplineChartItem15mousePressEventEP24QGraphicsSceneMouseEvent@Qt_5 5.10.1
 _ZThn8_N8QtCharts15SplineChartItem17mouseReleaseEventEP24QGraphicsSceneMouseEvent@Qt_5 5.10.1
 _ZThn8_N8QtCharts15SplineChartItem21mouseDoubleClickEventEP24QGraphicsSceneMouseEvent@Qt_5 5.10.1
 _ZThn8_N8QtCharts15SplineChartItem5paintEP8QPainterPK24QStyleOptionGraphicsItemP7QWidget@Qt_5 5.10.1
 _ZThn8_N8QtCharts16BoxPlotChartItem5paintEP8QPainterPK24QStyleOptionGraphicsItemP7QWidget@Qt_5 5.10.1
 _ZThn8_N8QtCharts16BoxPlotChartItemD0Ev@Qt_5 5.10.1
 _ZThn8_N8QtCharts16BoxPlotChartItemD1Ev@Qt_5 5.10.1
 _ZThn8_N8QtCharts16ChartAxisElementD0Ev@Qt_5 5.10.1
 _ZThn8_N8QtCharts16ChartAxisElementD1Ev@Qt_5 5.10.1
 _ZThn8_N8QtCharts16LegendMarkerItem15hoverEnterEventEP24QGraphicsSceneHoverEvent@Qt_5 5.10.1
 _ZThn8_N8QtCharts16LegendMarkerItem15hoverLeaveEventEP24QGraphicsSceneHoverEvent@Qt_5 5.10.1
 _ZThn8_N8QtCharts16LegendMarkerItem5paintEP8QPainterPK24QStyleOptionGraphicsItemP7QWidget@Qt_5 5.10.1
 _ZThn8_N8QtCharts16LegendMarkerItemD0Ev@Qt_5 5.10.1
 _ZThn8_N8QtCharts16LegendMarkerItemD1Ev@Qt_5 5.10.1
 _ZThn8_N8QtCharts16ScatterChartItem5paintEP8QPainterPK24QStyleOptionGraphicsItemP7QWidget@Qt_5 5.10.1
 _ZThn8_N8QtCharts18CartesianChartAxisD0Ev@Qt_5 5.10.1
 _ZThn8_N8QtCharts18CartesianChartAxisD1Ev@Qt_5 5.10.1
 _ZThn8_N8QtCharts18ChartCategoryAxisXD0Ev@Qt_5 5.10.1
 _ZThn8_N8QtCharts18ChartCategoryAxisXD1Ev@Qt_5 5.10.1
 _ZThn8_N8QtCharts18ChartCategoryAxisYD0Ev@Qt_5 5.10.1
 _ZThn8_N8QtCharts18ChartCategoryAxisYD1Ev@Qt_5 5.10.1
 _ZThn8_N8QtCharts18ChartDateTimeAxisXD0Ev@Qt_5 5.10.1
 _ZThn8_N8QtCharts18ChartDateTimeAxisXD1Ev@Qt_5 5.10.1
 _ZThn8_N8QtCharts18ChartDateTimeAxisYD0Ev@Qt_5 5.10.1
 _ZThn8_N8QtCharts18ChartDateTimeAxisYD1Ev@Qt_5 5.10.1
 _ZThn8_N8QtCharts18ChartLogValueAxisXD0Ev@Qt_5 5.10.1
 _ZThn8_N8QtCharts18ChartLogValueAxisXD1Ev@Qt_5 5.10.1
 _ZThn8_N8QtCharts18ChartLogValueAxisYD0Ev@Qt_5 5.10.1
 _ZThn8_N8QtCharts18ChartLogValueAxisYD1Ev@Qt_5 5.10.1
 _ZThn8_N8QtCharts20AbstractBarChartItem5paintEP8QPainterPK24QStyleOptionGraphicsItemP7QWidget@Qt_5 5.10.1
 _ZThn8_N8QtCharts20AbstractBarChartItemD0Ev@Qt_5 5.10.1
 _ZThn8_N8QtCharts20AbstractBarChartItemD1Ev@Qt_5 5.10.1
 _ZThn8_N8QtCharts20CandlestickChartItem5paintEP8QPainterPK24QStyleOptionGraphicsItemP7QWidget@Qt_5 5.10.1
 _ZThn8_N8QtCharts20CandlestickChartItemD0Ev@Qt_5 5.10.1
 _ZThn8_N8QtCharts20CandlestickChartItemD1Ev@Qt_5 5.10.1
 _ZThn8_N8QtCharts20PolarChartAxisRadialD0Ev@Qt_5 5.10.1
 _ZThn8_N8QtCharts20PolarChartAxisRadialD1Ev@Qt_5 5.10.1
 _ZThn8_N8QtCharts21ChartBarCategoryAxisXD0Ev@Qt_5 5.10.1
 _ZThn8_N8QtCharts21ChartBarCategoryAxisXD1Ev@Qt_5 5.10.1
 _ZThn8_N8QtCharts21ChartBarCategoryAxisYD0Ev@Qt_5 5.10.1
 _ZThn8_N8QtCharts21ChartBarCategoryAxisYD1Ev@Qt_5 5.10.1
 _ZThn8_N8QtCharts21PolarChartAxisAngularD0Ev@Qt_5 5.10.1
 _ZThn8_N8QtCharts21PolarChartAxisAngularD1Ev@Qt_5 5.10.1
 _ZThn8_N8QtCharts25PolarChartValueAxisRadialD0Ev@Qt_5 5.10.1
 _ZThn8_N8QtCharts25PolarChartValueAxisRadialD1Ev@Qt_5 5.10.1
 _ZThn8_N8QtCharts26PolarChartValueAxisAngularD0Ev@Qt_5 5.10.1
 _ZThn8_N8QtCharts26PolarChartValueAxisAngularD1Ev@Qt_5 5.10.1
 _ZThn8_N8QtCharts28PolarChartCategoryAxisRadialD0Ev@Qt_5 5.10.1
 _ZThn8_N8QtCharts28PolarChartCategoryAxisRadialD1Ev@Qt_5 5.10.1
 _ZThn8_N8QtCharts28PolarChartDateTimeAxisRadialD0Ev@Qt_5 5.10.1
 _ZThn8_N8QtCharts28PolarChartDateTimeAxisRadialD1Ev@Qt_5 5.10.1
 _ZThn8_N8QtCharts28PolarChartLogValueAxisRadialD0Ev@Qt_5 5.10.1
 _ZThn8_N8QtCharts28PolarChartLogValueAxisRadialD1Ev@Qt_5 5.10.1
 _ZThn8_N8QtCharts29PolarChartCategoryAxisAngularD0Ev@Qt_5 5.10.1
 _ZThn8_N8QtCharts29PolarChartCategoryAxisAngularD1Ev@Qt_5 5.10.1
 _ZThn8_N8QtCharts29PolarChartDateTimeAxisAngularD0Ev@Qt_5 5.10.1
 _ZThn8_N8QtCharts29PolarChartDateTimeAxisAngularD1Ev@Qt_5 5.10.1
 _ZThn8_N8QtCharts29PolarChartLogValueAxisAngularD0Ev@Qt_5 5.10.1
 _ZThn8_N8QtCharts29PolarChartLogValueAxisAngularD1Ev@Qt_5 5.10.1
 _ZThn8_N8QtCharts3Bar15hoverEnterEventEP24QGraphicsSceneHoverEvent@Qt_5 5.10.1
 _ZThn8_N8QtCharts3Bar15hoverLeaveEventEP24QGraphicsSceneHoverEvent@Qt_5 5.10.1
 _ZThn8_N8QtCharts3Bar15mousePressEventEP24QGraphicsSceneMouseEvent@Qt_5 5.10.1
 _ZThn8_N8QtCharts3Bar17mouseReleaseEventEP24QGraphicsSceneMouseEvent@Qt_5 5.10.1
 _ZThn8_N8QtCharts3Bar21mouseDoubleClickEventEP24QGraphicsSceneMouseEvent@Qt_5 5.10.1
 _ZThn8_N8QtCharts3Bar5paintEP8QPainterPK24QStyleOptionGraphicsItemP7QWidget@Qt_5 5.10.1
 _ZThn8_N8QtCharts3BarD0Ev@Qt_5 5.10.1
 _ZThn8_N8QtCharts3BarD1Ev@Qt_5 5.10.1
 _ZThn8_N8QtCharts6QChartD0Ev@Qt_5 5.7.1
 _ZThn8_N8QtCharts6QChartD1Ev@Qt_5 5.7.1
 _ZThn8_N8QtCharts7QLegend5paintEP8QPainterPK24QStyleOptionGraphicsItemP7QWidget@Qt_5 5.7.1
 _ZThn8_N8QtCharts7QLegendD0Ev@Qt_5 5.7.1
 _ZThn8_N8QtCharts7QLegendD1Ev@Qt_5 5.7.1
 _ZThn8_NK8QtCharts11BoxWhiskers12boundingRectEv@Qt_5 5.10.1
 _ZThn8_NK8QtCharts11Candlestick12boundingRectEv@Qt_5 5.10.1
 _ZThn8_NK8QtCharts12PieSliceItem12boundingRectEv@Qt_5 5.10.1
 _ZThn8_NK8QtCharts12PieSliceItem5shapeEv@Qt_5 5.10.1
 _ZThn8_NK8QtCharts13AreaChartItem12boundingRectEv@Qt_5 5.10.1
 _ZThn8_NK8QtCharts13AreaChartItem5shapeEv@Qt_5 5.10.1
 _ZThn8_NK8QtCharts13LineChartItem12boundingRectEv@Qt_5 5.10.1
 _ZThn8_NK8QtCharts13LineChartItem5shapeEv@Qt_5 5.10.1
 _ZThn8_NK8QtCharts15SplineChartItem12boundingRectEv@Qt_5 5.10.1
 _ZThn8_NK8QtCharts15SplineChartItem5shapeEv@Qt_5 5.10.1
 _ZThn8_NK8QtCharts16BoxPlotChartItem12boundingRectEv@Qt_5 5.10.1
 _ZThn8_NK8QtCharts16LegendMarkerItem12boundingRectEv@Qt_5 5.10.1
 _ZThn8_NK8QtCharts16ScatterChartItem12boundingRectEv@Qt_5 5.10.1
 _ZThn8_NK8QtCharts20AbstractBarChartItem12boundingRectEv@Qt_5 5.10.1
 _ZThn8_NK8QtCharts20CandlestickChartItem12boundingRectEv@Qt_5 5.10.1
